---
triple:          'arm64-apple-darwin'
binary-path:     '/Users/gpa/Desktop/Tarea1_PP/Paradigmas_Tarea1/main'
relocations:
  - { offsetInCU: 0x2D65, offset: 0x2D65, size: 0x8, addend: 0x0, symName: __ZNSt3__118__constexpr_strlenB8ue170006EPKc, symObjAddr: 0x348, symBinAddr: 0x100002960, symSize: 0x24 }
  - { offsetInCU: 0x542B, offset: 0x542B, size: 0x8, addend: 0x0, symName: __ZN4AutoC2Ev, symObjAddr: 0x0, symBinAddr: 0x100002618, symSize: 0x70 }
  - { offsetInCU: 0x545A, offset: 0x545A, size: 0x8, addend: 0x0, symName: __ZNSt3__112basic_stringIcNS_11char_traitsIcEENS_9allocatorIcEEEC1B8ue170006ILi0EEEPKc, symObjAddr: 0x70, symBinAddr: 0x100002688, symSize: 0x34 }
  - { offsetInCU: 0x5497, offset: 0x5497, size: 0x8, addend: 0x0, symName: __ZN8VehiculoD2Ev, symObjAddr: 0xA4, symBinAddr: 0x1000026BC, symSize: 0x98 }
  - { offsetInCU: 0x54C1, offset: 0x54C1, size: 0x8, addend: 0x0, symName: __ZN4AutoC1Ev, symObjAddr: 0x148, symBinAddr: 0x100002760, symSize: 0x2C }
  - { offsetInCU: 0x54EB, offset: 0x54EB, size: 0x8, addend: 0x0, symName: __ZN4Auto15getTipoVehiculoEv, symObjAddr: 0x174, symBinAddr: 0x10000278C, symSize: 0x3C }
  - { offsetInCU: 0x5511, offset: 0x5511, size: 0x8, addend: 0x0, symName: __ZNSt3__112basic_stringIcNS_11char_traitsIcEENS_9allocatorIcEEEC2B8ue170006ILi0EEEPKc, symObjAddr: 0x1B0, symBinAddr: 0x1000027C8, symSize: 0x58 }
  - { offsetInCU: 0x5553, offset: 0x5553, size: 0x8, addend: 0x0, symName: __ZNSt3__117__compressed_pairINS_12basic_stringIcNS_11char_traitsIcEENS_9allocatorIcEEE5__repES5_EC1B8ue170006INS_18__default_init_tagESA_EEOT_OT0_, symObjAddr: 0x208, symBinAddr: 0x100002820, symSize: 0x3C }
  - { offsetInCU: 0x55A9, offset: 0x55A9, size: 0x8, addend: 0x0, symName: __ZNSt3__111char_traitsIcE6lengthB8ue170006EPKc, symObjAddr: 0x244, symBinAddr: 0x10000285C, symSize: 0x48 }
  - { offsetInCU: 0x55CB, offset: 0x55CB, size: 0x8, addend: 0x0, symName: __ZNSt3__117__compressed_pairINS_12basic_stringIcNS_11char_traitsIcEENS_9allocatorIcEEE5__repES5_EC2B8ue170006INS_18__default_init_tagESA_EEOT_OT0_, symObjAddr: 0x28C, symBinAddr: 0x1000028A4, symSize: 0x3C }
  - { offsetInCU: 0x5621, offset: 0x5621, size: 0x8, addend: 0x0, symName: __ZNSt3__122__compressed_pair_elemINS_12basic_stringIcNS_11char_traitsIcEENS_9allocatorIcEEE5__repELi0ELb0EEC2B8ue170006ENS_18__default_init_tagE, symObjAddr: 0x2C8, symBinAddr: 0x1000028E0, symSize: 0x14 }
  - { offsetInCU: 0x5653, offset: 0x5653, size: 0x8, addend: 0x0, symName: __ZNSt3__122__compressed_pair_elemINS_9allocatorIcEELi1ELb1EEC2B8ue170006ENS_18__default_init_tagE, symObjAddr: 0x2DC, symBinAddr: 0x1000028F4, symSize: 0x2C }
  - { offsetInCU: 0x5685, offset: 0x5685, size: 0x8, addend: 0x0, symName: __ZNSt3__19allocatorIcEC2B8ue170006Ev, symObjAddr: 0x308, symBinAddr: 0x100002920, symSize: 0x2C }
  - { offsetInCU: 0x56AD, offset: 0x56AD, size: 0x8, addend: 0x0, symName: __ZNSt3__116__non_trivial_ifILb1ENS_9allocatorIcEEEC2B8ue170006Ev, symObjAddr: 0x334, symBinAddr: 0x10000294C, symSize: 0x14 }
  - { offsetInCU: 0x4727, offset: 0x9E15, size: 0x8, addend: 0x0, symName: __ZNSt3__124__put_character_sequenceB8ue170006IcNS_11char_traitsIcEEEERNS_13basic_ostreamIT_T0_EES7_PKS4_m, symObjAddr: 0x1768, symBinAddr: 0x100004048, symSize: 0x1F4 }
  - { offsetInCU: 0x6573, offset: 0xBC61, size: 0x8, addend: 0x0, symName: __ZNSt3__1neB8ue170006IPP5VentaEEbRKNS_11__wrap_iterIT_EES8_, symObjAddr: 0x174, symBinAddr: 0x100002AF8, symSize: 0x34 }
  - { offsetInCU: 0x65B6, offset: 0xBCA4, size: 0x8, addend: 0x0, symName: __ZNSt3__1lsB8ue170006INS_11char_traitsIcEEEERNS_13basic_ostreamIcT_EES6_PKc, symObjAddr: 0x588, symBinAddr: 0x100002F00, symSize: 0x48 }
  - { offsetInCU: 0x65FC, offset: 0xBCEA, size: 0x8, addend: 0x0, symName: __ZNSt3__1rsB8ue170006IcNS_11char_traitsIcEENS_9allocatorIcEEEERNS_13basic_istreamIT_T0_EES9_RNS_12basic_stringIS6_S7_T1_EE, symObjAddr: 0x5FC, symBinAddr: 0x100002F74, symSize: 0x314 }
  - { offsetInCU: 0x66C9, offset: 0xBDB7, size: 0x8, addend: 0x0, symName: __ZNSt3__112__to_addressB8ue170006I8VehiculoEEPT_S3_, symObjAddr: 0xD58, symBinAddr: 0x1000036D0, symSize: 0x14 }
  - { offsetInCU: 0x66FE, offset: 0xBDEC, size: 0x8, addend: 0x0, symName: __ZNSt3__130__libcpp_is_constant_evaluatedB8ue170006Ev, symObjAddr: 0xF3C, symBinAddr: 0x10000381C, symSize: 0xC }
  - { offsetInCU: 0x671B, offset: 0xBE09, size: 0x8, addend: 0x0, symName: __ZNSt3__119__libcpp_deallocateB8ue170006EPvmm, symObjAddr: 0xF48, symBinAddr: 0x100003828, symSize: 0x30 }
  - { offsetInCU: 0x6763, offset: 0xBE51, size: 0x8, addend: 0x0, symName: __ZNSt3__127__do_deallocate_handle_sizeB8ue170006IJEEEvPvmDpT_, symObjAddr: 0xF78, symBinAddr: 0x100003858, symSize: 0x28 }
  - { offsetInCU: 0x67A1, offset: 0xBE8F, size: 0x8, addend: 0x0, symName: __ZNSt3__124__libcpp_operator_deleteB8ue170006IJPvEEEvDpT_, symObjAddr: 0xFA0, symBinAddr: 0x100003880, symSize: 0x24 }
  - { offsetInCU: 0x67D6, offset: 0xBEC4, size: 0x8, addend: 0x0, symName: __ZNSt3__112__to_addressB8ue170006IP5VentaEEPT_S4_, symObjAddr: 0x150C, symBinAddr: 0x100003DEC, symSize: 0x14 }
  - { offsetInCU: 0x680B, offset: 0xBEF9, size: 0x8, addend: 0x0, symName: __ZNSt3__1eqB8ue170006IPP5VentaEEbRKNS_11__wrap_iterIT_EES8_, symObjAddr: 0x1708, symBinAddr: 0x100003FE8, symSize: 0x48 }
  - { offsetInCU: 0x684E, offset: 0xBF3C, size: 0x8, addend: 0x0, symName: __ZNSt3__116__pad_and_outputB8ue170006IcNS_11char_traitsIcEEEENS_19ostreambuf_iteratorIT_T0_EES6_PKS4_S8_S8_RNS_8ios_baseES4_, symObjAddr: 0x19C0, symBinAddr: 0x100004258, symSize: 0x248 }
  - { offsetInCU: 0x691D, offset: 0xC00B, size: 0x8, addend: 0x0, symName: __ZNSt3__112__to_addressB8ue170006IKcEEPT_S3_, symObjAddr: 0x1F30, symBinAddr: 0x1000046D0, symSize: 0x14 }
  - { offsetInCU: 0x6985, offset: 0xC073, size: 0x8, addend: 0x0, symName: __ZNSt3__19use_facetB8ue170006INS_5ctypeIcEEEERKT_RKNS_6localeE, symObjAddr: 0x2208, symBinAddr: 0x1000049A8, symSize: 0x2C }
  - { offsetInCU: 0x6D63, offset: 0xC451, size: 0x8, addend: 0x0, symName: __ZNSt3__117__libcpp_allocateB8ue170006Emm, symObjAddr: 0x26C0, symBinAddr: 0x100004E3C, symSize: 0x28 }
  - { offsetInCU: 0x6DA0, offset: 0xC48E, size: 0x8, addend: 0x0, symName: __ZNSt3__121__libcpp_operator_newB8ue170006IJmEEEPvDpT_, symObjAddr: 0x26FC, symBinAddr: 0x100004E78, symSize: 0x24 }
  - { offsetInCU: 0x779B, offset: 0xCE89, size: 0x8, addend: 0x0, symName: __ZSt28__throw_bad_array_new_lengthB8ue170006v, symObjAddr: 0x268C, symBinAddr: 0x100004E08, symSize: 0x34 }
  - { offsetInCU: 0x9E30, offset: 0xF51E, size: 0x8, addend: 0x0, symName: __ZN8ProgramaC2Ev, symObjAddr: 0x0, symBinAddr: 0x100002984, symSize: 0x2C }
  - { offsetInCU: 0x9E5A, offset: 0xF548, size: 0x8, addend: 0x0, symName: __ZNSt3__16vectorIP5VentaNS_9allocatorIS2_EEEC1B8ue170006Ev, symObjAddr: 0x2C, symBinAddr: 0x1000029B0, symSize: 0x2C }
  - { offsetInCU: 0x9E82, offset: 0xF570, size: 0x8, addend: 0x0, symName: __ZN8ProgramaC1Ev, symObjAddr: 0x58, symBinAddr: 0x1000029DC, symSize: 0x2C }
  - { offsetInCU: 0x9EAC, offset: 0xF59A, size: 0x8, addend: 0x0, symName: __ZN8Programa19get_total_vehiculosEv, symObjAddr: 0x84, symBinAddr: 0x100002A08, symSize: 0x90 }
  - { offsetInCU: 0x9F36, offset: 0xF624, size: 0x8, addend: 0x0, symName: __ZNSt3__16vectorIP5VentaNS_9allocatorIS2_EEE5beginB8ue170006Ev, symObjAddr: 0x114, symBinAddr: 0x100002A98, symSize: 0x30 }
  - { offsetInCU: 0x9F5D, offset: 0xF64B, size: 0x8, addend: 0x0, symName: __ZNSt3__16vectorIP5VentaNS_9allocatorIS2_EEE3endB8ue170006Ev, symObjAddr: 0x144, symBinAddr: 0x100002AC8, symSize: 0x30 }
  - { offsetInCU: 0x9F84, offset: 0xF672, size: 0x8, addend: 0x0, symName: __ZNKSt3__111__wrap_iterIPP5VentaEdeB8ue170006Ev, symObjAddr: 0x1A8, symBinAddr: 0x100002B2C, symSize: 0x18 }
  - { offsetInCU: 0x9FA9, offset: 0xF697, size: 0x8, addend: 0x0, symName: __ZNSt3__111__wrap_iterIPP5VentaEppB8ue170006Ev, symObjAddr: 0x1C0, symBinAddr: 0x100002B44, symSize: 0x20 }
  - { offsetInCU: 0x9FCD, offset: 0xF6BB, size: 0x8, addend: 0x0, symName: __ZN8Programa18get_total_clientesEv, symObjAddr: 0x1E0, symBinAddr: 0x100002B64, symSize: 0x24 }
  - { offsetInCU: 0x9FF4, offset: 0xF6E2, size: 0x8, addend: 0x0, symName: __ZNKSt3__16vectorIP5VentaNS_9allocatorIS2_EEE4sizeB8ue170006Ev, symObjAddr: 0x204, symBinAddr: 0x100002B88, symSize: 0x28 }
  - { offsetInCU: 0xA018, offset: 0xF706, size: 0x8, addend: 0x0, symName: __ZN8ProgramaD2Ev, symObjAddr: 0x22C, symBinAddr: 0x100002BB0, symSize: 0xEC }
  - { offsetInCU: 0xA08D, offset: 0xF77B, size: 0x8, addend: 0x0, symName: __ZN5VentaD1Ev, symObjAddr: 0x318, symBinAddr: 0x100002C9C, symSize: 0x2C }
  - { offsetInCU: 0xA0B7, offset: 0xF7A5, size: 0x8, addend: 0x0, symName: __ZNSt3__16vectorIP5VentaNS_9allocatorIS2_EEED1B8ue170006Ev, symObjAddr: 0x344, symBinAddr: 0x100002CC8, symSize: 0x2C }
  - { offsetInCU: 0xA0DF, offset: 0xF7CD, size: 0x8, addend: 0x0, symName: __ZN8ProgramaD1Ev, symObjAddr: 0x37C, symBinAddr: 0x100002CF4, symSize: 0x2C }
  - { offsetInCU: 0xA109, offset: 0xF7F7, size: 0x8, addend: 0x0, symName: __ZN8Programa8ejecutarEv, symObjAddr: 0x3A8, symBinAddr: 0x100002D20, symSize: 0x1E0 }
  - { offsetInCU: 0xA171, offset: 0xF85F, size: 0x8, addend: 0x0, symName: __ZNSt3__112basic_stringIcNS_11char_traitsIcEENS_9allocatorIcEEEC1B8ue170006Ev, symObjAddr: 0x5D0, symBinAddr: 0x100002F48, symSize: 0x2C }
  - { offsetInCU: 0xA199, offset: 0xF887, size: 0x8, addend: 0x0, symName: __ZN5VentaD2Ev, symObjAddr: 0x910, symBinAddr: 0x100003288, symSize: 0x98 }
  - { offsetInCU: 0xA1C3, offset: 0xF8B1, size: 0x8, addend: 0x0, symName: __ZNSt3__16vectorI8VehiculoNS_9allocatorIS1_EEED1B8ue170006Ev, symObjAddr: 0x9A8, symBinAddr: 0x100003320, symSize: 0x2C }
  - { offsetInCU: 0xA1EB, offset: 0xF8D9, size: 0x8, addend: 0x0, symName: __ZNSt3__16vectorI8VehiculoNS_9allocatorIS1_EEED2B8ue170006Ev, symObjAddr: 0x9D4, symBinAddr: 0x10000334C, symSize: 0x3C }
  - { offsetInCU: 0xA213, offset: 0xF901, size: 0x8, addend: 0x0, symName: __ZNSt3__16vectorI8VehiculoNS_9allocatorIS1_EEE16__destroy_vectorC1B8ue170006ERS4_, symObjAddr: 0xA10, symBinAddr: 0x100003388, symSize: 0x34 }
  - { offsetInCU: 0xA24B, offset: 0xF939, size: 0x8, addend: 0x0, symName: __ZNSt3__16vectorI8VehiculoNS_9allocatorIS1_EEE16__destroy_vectorclB8ue170006Ev, symObjAddr: 0xA44, symBinAddr: 0x1000033BC, symSize: 0x90 }
  - { offsetInCU: 0xA270, offset: 0xF95E, size: 0x8, addend: 0x0, symName: __ZNSt3__16vectorI8VehiculoNS_9allocatorIS1_EEE16__destroy_vectorC2B8ue170006ERS4_, symObjAddr: 0xAD4, symBinAddr: 0x10000344C, symSize: 0x20 }
  - { offsetInCU: 0xA2A7, offset: 0xF995, size: 0x8, addend: 0x0, symName: __ZNSt3__16vectorI8VehiculoNS_9allocatorIS1_EEE7__clearB8ue170006Ev, symObjAddr: 0xAF4, symBinAddr: 0x10000346C, symSize: 0x28 }
  - { offsetInCU: 0xA2CC, offset: 0xF9BA, size: 0x8, addend: 0x0, symName: __ZNKSt3__16vectorI8VehiculoNS_9allocatorIS1_EEE17__annotate_deleteB8ue170006Ev, symObjAddr: 0xB1C, symBinAddr: 0x100003494, symSize: 0xD4 }
  - { offsetInCU: 0xA2F1, offset: 0xF9DF, size: 0x8, addend: 0x0, symName: __ZNSt3__116allocator_traitsINS_9allocatorI8VehiculoEEE10deallocateB8ue170006ERS3_PS2_m, symObjAddr: 0xBF0, symBinAddr: 0x100003568, symSize: 0x34 }
  - { offsetInCU: 0xA332, offset: 0xFA20, size: 0x8, addend: 0x0, symName: __ZNSt3__16vectorI8VehiculoNS_9allocatorIS1_EEE7__allocB8ue170006Ev, symObjAddr: 0xC24, symBinAddr: 0x10000359C, symSize: 0x28 }
  - { offsetInCU: 0xA357, offset: 0xFA45, size: 0x8, addend: 0x0, symName: __ZNKSt3__16vectorI8VehiculoNS_9allocatorIS1_EEE8capacityB8ue170006Ev, symObjAddr: 0xC4C, symBinAddr: 0x1000035C4, symSize: 0x40 }
  - { offsetInCU: 0xA37C, offset: 0xFA6A, size: 0x8, addend: 0x0, symName: __ZNSt3__16vectorI8VehiculoNS_9allocatorIS1_EEE22__base_destruct_at_endB8ue170006EPS1_, symObjAddr: 0xC8C, symBinAddr: 0x100003604, symSize: 0xA0 }
  - { offsetInCU: 0xA3BF, offset: 0xFAAD, size: 0x8, addend: 0x0, symName: __ZNSt3__116allocator_traitsINS_9allocatorI8VehiculoEEE7destroyB8ue170006IS2_vEEvRS3_PT_, symObjAddr: 0xD2C, symBinAddr: 0x1000036A4, symSize: 0x2C }
  - { offsetInCU: 0xA3FB, offset: 0xFAE9, size: 0x8, addend: 0x0, symName: __ZNSt3__19allocatorI8VehiculoE7destroyB8ue170006EPS1_, symObjAddr: 0xD6C, symBinAddr: 0x1000036E4, symSize: 0x28 }
  - { offsetInCU: 0xA42D, offset: 0xFB1B, size: 0x8, addend: 0x0, symName: __ZN8VehiculoD1Ev, symObjAddr: 0xD94, symBinAddr: 0x10000370C, symSize: 0x2C }
  - { offsetInCU: 0xA458, offset: 0xFB46, size: 0x8, addend: 0x0, symName: __ZNKSt3__16vectorI8VehiculoNS_9allocatorIS1_EEE31__annotate_contiguous_containerB8ue170006EPKvS6_S6_S6_, symObjAddr: 0xE58, symBinAddr: 0x100003738, symSize: 0x20 }
  - { offsetInCU: 0xA4AD, offset: 0xFB9B, size: 0x8, addend: 0x0, symName: __ZNKSt3__16vectorI8VehiculoNS_9allocatorIS1_EEE4dataB8ue170006Ev, symObjAddr: 0xE78, symBinAddr: 0x100003758, symSize: 0x28 }
  - { offsetInCU: 0xA4D2, offset: 0xFBC0, size: 0x8, addend: 0x0, symName: __ZNKSt3__16vectorI8VehiculoNS_9allocatorIS1_EEE4sizeB8ue170006Ev, symObjAddr: 0xEA0, symBinAddr: 0x100003780, symSize: 0x28 }
  - { offsetInCU: 0xA4F7, offset: 0xFBE5, size: 0x8, addend: 0x0, symName: __ZNSt3__19allocatorI8VehiculoE10deallocateB8ue170006EPS1_m, symObjAddr: 0xEC8, symBinAddr: 0x1000037A8, symSize: 0x74 }
  - { offsetInCU: 0xA538, offset: 0xFC26, size: 0x8, addend: 0x0, symName: __ZNSt3__117__compressed_pairIP8VehiculoNS_9allocatorIS1_EEE6secondB8ue170006Ev, symObjAddr: 0xFC4, symBinAddr: 0x1000038A4, symSize: 0x24 }
  - { offsetInCU: 0xA55D, offset: 0xFC4B, size: 0x8, addend: 0x0, symName: __ZNSt3__122__compressed_pair_elemINS_9allocatorI8VehiculoEELi1ELb1EE5__getB8ue170006Ev, symObjAddr: 0xFE8, symBinAddr: 0x1000038C8, symSize: 0x14 }
  - { offsetInCU: 0xA582, offset: 0xFC70, size: 0x8, addend: 0x0, symName: __ZNKSt3__16vectorI8VehiculoNS_9allocatorIS1_EEE9__end_capB8ue170006Ev, symObjAddr: 0xFFC, symBinAddr: 0x1000038DC, symSize: 0x28 }
  - { offsetInCU: 0xA5A7, offset: 0xFC95, size: 0x8, addend: 0x0, symName: __ZNKSt3__117__compressed_pairIP8VehiculoNS_9allocatorIS1_EEE5firstB8ue170006Ev, symObjAddr: 0x1024, symBinAddr: 0x100003904, symSize: 0x24 }
  - { offsetInCU: 0xA5CC, offset: 0xFCBA, size: 0x8, addend: 0x0, symName: __ZNKSt3__122__compressed_pair_elemIP8VehiculoLi0ELb0EE5__getB8ue170006Ev, symObjAddr: 0x1048, symBinAddr: 0x100003928, symSize: 0x14 }
  - { offsetInCU: 0xA5F0, offset: 0xFCDE, size: 0x8, addend: 0x0, symName: __ZNSt3__16vectorIP5VentaNS_9allocatorIS2_EEEC2B8ue170006Ev, symObjAddr: 0x105C, symBinAddr: 0x10000393C, symSize: 0x44 }
  - { offsetInCU: 0xA622, offset: 0xFD10, size: 0x8, addend: 0x0, symName: __ZNSt3__117__compressed_pairIPP5VentaNS_9allocatorIS2_EEEC1B8ue170006IDnNS_18__default_init_tagEEEOT_OT0_, symObjAddr: 0x10A0, symBinAddr: 0x100003980, symSize: 0x3C }
  - { offsetInCU: 0xA678, offset: 0xFD66, size: 0x8, addend: 0x0, symName: __ZNSt3__117__compressed_pairIPP5VentaNS_9allocatorIS2_EEEC2B8ue170006IDnNS_18__default_init_tagEEEOT_OT0_, symObjAddr: 0x10DC, symBinAddr: 0x1000039BC, symSize: 0x40 }
  - { offsetInCU: 0xA6CF, offset: 0xFDBD, size: 0x8, addend: 0x0, symName: __ZNSt3__122__compressed_pair_elemIPP5VentaLi0ELb0EEC2B8ue170006IDnvEEOT_, symObjAddr: 0x111C, symBinAddr: 0x1000039FC, symSize: 0x1C }
  - { offsetInCU: 0xA70E, offset: 0xFDFC, size: 0x8, addend: 0x0, symName: __ZNSt3__122__compressed_pair_elemINS_9allocatorIP5VentaEELi1ELb1EEC2B8ue170006ENS_18__default_init_tagE, symObjAddr: 0x1138, symBinAddr: 0x100003A18, symSize: 0x2C }
  - { offsetInCU: 0xA740, offset: 0xFE2E, size: 0x8, addend: 0x0, symName: __ZNSt3__19allocatorIP5VentaEC2B8ue170006Ev, symObjAddr: 0x1164, symBinAddr: 0x100003A44, symSize: 0x2C }
  - { offsetInCU: 0xA769, offset: 0xFE57, size: 0x8, addend: 0x0, symName: __ZNSt3__116__non_trivial_ifILb1ENS_9allocatorIP5VentaEEEC2B8ue170006Ev, symObjAddr: 0x1190, symBinAddr: 0x100003A70, symSize: 0x14 }
  - { offsetInCU: 0xA790, offset: 0xFE7E, size: 0x8, addend: 0x0, symName: __ZNSt3__16vectorIP5VentaNS_9allocatorIS2_EEED2B8ue170006Ev, symObjAddr: 0x11A4, symBinAddr: 0x100003A84, symSize: 0x3C }
  - { offsetInCU: 0xA7B8, offset: 0xFEA6, size: 0x8, addend: 0x0, symName: __ZNSt3__16vectorIP5VentaNS_9allocatorIS2_EEE16__destroy_vectorC1B8ue170006ERS5_, symObjAddr: 0x11E0, symBinAddr: 0x100003AC0, symSize: 0x34 }
  - { offsetInCU: 0xA7F0, offset: 0xFEDE, size: 0x8, addend: 0x0, symName: __ZNSt3__16vectorIP5VentaNS_9allocatorIS2_EEE16__destroy_vectorclB8ue170006Ev, symObjAddr: 0x1214, symBinAddr: 0x100003AF4, symSize: 0x90 }
  - { offsetInCU: 0xA815, offset: 0xFF03, size: 0x8, addend: 0x0, symName: __ZNSt3__16vectorIP5VentaNS_9allocatorIS2_EEE16__destroy_vectorC2B8ue170006ERS5_, symObjAddr: 0x12A4, symBinAddr: 0x100003B84, symSize: 0x20 }
  - { offsetInCU: 0xA84C, offset: 0xFF3A, size: 0x8, addend: 0x0, symName: __ZNSt3__16vectorIP5VentaNS_9allocatorIS2_EEE7__clearB8ue170006Ev, symObjAddr: 0x12C4, symBinAddr: 0x100003BA4, symSize: 0x28 }
  - { offsetInCU: 0xA871, offset: 0xFF5F, size: 0x8, addend: 0x0, symName: __ZNKSt3__16vectorIP5VentaNS_9allocatorIS2_EEE17__annotate_deleteB8ue170006Ev, symObjAddr: 0x12EC, symBinAddr: 0x100003BCC, symSize: 0xB8 }
  - { offsetInCU: 0xA896, offset: 0xFF84, size: 0x8, addend: 0x0, symName: __ZNSt3__116allocator_traitsINS_9allocatorIP5VentaEEE10deallocateB8ue170006ERS4_PS3_m, symObjAddr: 0x13A4, symBinAddr: 0x100003C84, symSize: 0x34 }
  - { offsetInCU: 0xA8D7, offset: 0xFFC5, size: 0x8, addend: 0x0, symName: __ZNSt3__16vectorIP5VentaNS_9allocatorIS2_EEE7__allocB8ue170006Ev, symObjAddr: 0x13D8, symBinAddr: 0x100003CB8, symSize: 0x28 }
  - { offsetInCU: 0xA8FC, offset: 0xFFEA, size: 0x8, addend: 0x0, symName: __ZNKSt3__16vectorIP5VentaNS_9allocatorIS2_EEE8capacityB8ue170006Ev, symObjAddr: 0x1400, symBinAddr: 0x100003CE0, symSize: 0x40 }
  - { offsetInCU: 0xA921, offset: 0x1000F, size: 0x8, addend: 0x0, symName: __ZNSt3__16vectorIP5VentaNS_9allocatorIS2_EEE22__base_destruct_at_endB8ue170006EPS2_, symObjAddr: 0x1440, symBinAddr: 0x100003D20, symSize: 0xA0 }
  - { offsetInCU: 0xA964, offset: 0x10052, size: 0x8, addend: 0x0, symName: __ZNSt3__116allocator_traitsINS_9allocatorIP5VentaEEE7destroyB8ue170006IS3_vEEvRS4_PT_, symObjAddr: 0x14E0, symBinAddr: 0x100003DC0, symSize: 0x2C }
  - { offsetInCU: 0xA9A0, offset: 0x1008E, size: 0x8, addend: 0x0, symName: __ZNSt3__19allocatorIP5VentaE7destroyB8ue170006EPS2_, symObjAddr: 0x1520, symBinAddr: 0x100003E00, symSize: 0x14 }
  - { offsetInCU: 0xA9D3, offset: 0x100C1, size: 0x8, addend: 0x0, symName: __ZNKSt3__16vectorIP5VentaNS_9allocatorIS2_EEE31__annotate_contiguous_containerB8ue170006EPKvS7_S7_S7_, symObjAddr: 0x1534, symBinAddr: 0x100003E14, symSize: 0x20 }
  - { offsetInCU: 0xAA28, offset: 0x10116, size: 0x8, addend: 0x0, symName: __ZNKSt3__16vectorIP5VentaNS_9allocatorIS2_EEE4dataB8ue170006Ev, symObjAddr: 0x1554, symBinAddr: 0x100003E34, symSize: 0x28 }
  - { offsetInCU: 0xAA4D, offset: 0x1013B, size: 0x8, addend: 0x0, symName: __ZNSt3__19allocatorIP5VentaE10deallocateB8ue170006EPS2_m, symObjAddr: 0x157C, symBinAddr: 0x100003E5C, symSize: 0x70 }
  - { offsetInCU: 0xAA8E, offset: 0x1017C, size: 0x8, addend: 0x0, symName: __ZNSt3__117__compressed_pairIPP5VentaNS_9allocatorIS2_EEE6secondB8ue170006Ev, symObjAddr: 0x15EC, symBinAddr: 0x100003ECC, symSize: 0x24 }
  - { offsetInCU: 0xAAB3, offset: 0x101A1, size: 0x8, addend: 0x0, symName: __ZNSt3__122__compressed_pair_elemINS_9allocatorIP5VentaEELi1ELb1EE5__getB8ue170006Ev, symObjAddr: 0x1610, symBinAddr: 0x100003EF0, symSize: 0x14 }
  - { offsetInCU: 0xAAD8, offset: 0x101C6, size: 0x8, addend: 0x0, symName: __ZNKSt3__16vectorIP5VentaNS_9allocatorIS2_EEE9__end_capB8ue170006Ev, symObjAddr: 0x1624, symBinAddr: 0x100003F04, symSize: 0x28 }
  - { offsetInCU: 0xAAFD, offset: 0x101EB, size: 0x8, addend: 0x0, symName: __ZNKSt3__117__compressed_pairIPP5VentaNS_9allocatorIS2_EEE5firstB8ue170006Ev, symObjAddr: 0x164C, symBinAddr: 0x100003F2C, symSize: 0x24 }
  - { offsetInCU: 0xAB22, offset: 0x10210, size: 0x8, addend: 0x0, symName: __ZNKSt3__122__compressed_pair_elemIPP5VentaLi0ELb0EE5__getB8ue170006Ev, symObjAddr: 0x1670, symBinAddr: 0x100003F50, symSize: 0x14 }
  - { offsetInCU: 0xAB47, offset: 0x10235, size: 0x8, addend: 0x0, symName: __ZNSt3__16vectorIP5VentaNS_9allocatorIS2_EEE11__make_iterB8ue170006EPS2_, symObjAddr: 0x1684, symBinAddr: 0x100003F64, symSize: 0x30 }
  - { offsetInCU: 0xAB7A, offset: 0x10268, size: 0x8, addend: 0x0, symName: __ZNSt3__111__wrap_iterIPP5VentaEC1B8ue170006ES3_, symObjAddr: 0x16B4, symBinAddr: 0x100003F94, symSize: 0x34 }
  - { offsetInCU: 0xABB1, offset: 0x1029F, size: 0x8, addend: 0x0, symName: __ZNSt3__111__wrap_iterIPP5VentaEC2B8ue170006ES3_, symObjAddr: 0x16E8, symBinAddr: 0x100003FC8, symSize: 0x20 }
  - { offsetInCU: 0xABE7, offset: 0x102D5, size: 0x8, addend: 0x0, symName: __ZNKSt3__111__wrap_iterIPP5VentaE4baseB8ue170006Ev, symObjAddr: 0x1750, symBinAddr: 0x100004030, symSize: 0x18 }
  - { offsetInCU: 0xAC2A, offset: 0x10318, size: 0x8, addend: 0x0, symName: __ZNKSt3__113basic_ostreamIcNS_11char_traitsIcEEE6sentrycvbB8ue170006Ev, symObjAddr: 0x19A4, symBinAddr: 0x10000423C, symSize: 0x1C }
  - { offsetInCU: 0xAC4E, offset: 0x1033C, size: 0x8, addend: 0x0, symName: __ZNSt3__119ostreambuf_iteratorIcNS_11char_traitsIcEEEC1B8ue170006ERNS_13basic_ostreamIcS2_EE, symObjAddr: 0x1C08, symBinAddr: 0x1000044A0, symSize: 0x34 }
  - { offsetInCU: 0xAC85, offset: 0x10373, size: 0x8, addend: 0x0, symName: __ZNKSt3__18ios_base5flagsB8ue170006Ev, symObjAddr: 0x1C3C, symBinAddr: 0x1000044D4, symSize: 0x18 }
  - { offsetInCU: 0xACAC, offset: 0x1039A, size: 0x8, addend: 0x0, symName: __ZNKSt3__19basic_iosIcNS_11char_traitsIcEEE4fillB8ue170006Ev, symObjAddr: 0x1C54, symBinAddr: 0x1000044EC, symSize: 0x64 }
  - { offsetInCU: 0xACD3, offset: 0x103C1, size: 0x8, addend: 0x0, symName: __ZNKSt3__119ostreambuf_iteratorIcNS_11char_traitsIcEEE6failedB8ue170006Ev, symObjAddr: 0x1CB8, symBinAddr: 0x100004550, symSize: 0x24 }
  - { offsetInCU: 0xACF8, offset: 0x103E6, size: 0x8, addend: 0x0, symName: __ZNSt3__19basic_iosIcNS_11char_traitsIcEEE8setstateB8ue170006Ej, symObjAddr: 0x1CDC, symBinAddr: 0x100004574, symSize: 0x2C }
  - { offsetInCU: 0xAD2C, offset: 0x1041A, size: 0x8, addend: 0x0, symName: __ZNKSt3__18ios_base5widthB8ue170006Ev, symObjAddr: 0x1D08, symBinAddr: 0x1000045A0, symSize: 0x18 }
  - { offsetInCU: 0xAD53, offset: 0x10441, size: 0x8, addend: 0x0, symName: __ZNSt3__115basic_streambufIcNS_11char_traitsIcEEE5sputnB8ue170006EPKcl, symObjAddr: 0x1D20, symBinAddr: 0x1000045B8, symSize: 0x3C }
  - { offsetInCU: 0xAD93, offset: 0x10481, size: 0x8, addend: 0x0, symName: __ZNSt3__112basic_stringIcNS_11char_traitsIcEENS_9allocatorIcEEEC1B8ue170006Emc, symObjAddr: 0x1D5C, symBinAddr: 0x1000045F4, symSize: 0x3C }
  - { offsetInCU: 0xADDA, offset: 0x104C8, size: 0x8, addend: 0x0, symName: __ZNKSt3__112basic_stringIcNS_11char_traitsIcEENS_9allocatorIcEEE4dataB8ue170006Ev, symObjAddr: 0x1D98, symBinAddr: 0x100004630, symSize: 0x28 }
  - { offsetInCU: 0xADFF, offset: 0x104ED, size: 0x8, addend: 0x0, symName: __ZNSt3__18ios_base5widthB8ue170006El, symObjAddr: 0x1DC0, symBinAddr: 0x100004658, symSize: 0x2C }
  - { offsetInCU: 0xAE43, offset: 0x10531, size: 0x8, addend: 0x0, symName: __ZNSt3__112basic_stringIcNS_11char_traitsIcEENS_9allocatorIcEEEC2B8ue170006Emc, symObjAddr: 0x1DEC, symBinAddr: 0x100004684, symSize: 0x4C }
  - { offsetInCU: 0xAE8A, offset: 0x10578, size: 0x8, addend: 0x0, symName: __ZNKSt3__112basic_stringIcNS_11char_traitsIcEENS_9allocatorIcEEE13__get_pointerB8ue170006Ev, symObjAddr: 0x1F44, symBinAddr: 0x1000046E4, symSize: 0x54 }
  - { offsetInCU: 0xAEAF, offset: 0x1059D, size: 0x8, addend: 0x0, symName: __ZNKSt3__112basic_stringIcNS_11char_traitsIcEENS_9allocatorIcEEE9__is_longB8ue170006Ev, symObjAddr: 0x1F98, symBinAddr: 0x100004738, symSize: 0x74 }
  - { offsetInCU: 0xAED4, offset: 0x105C2, size: 0x8, addend: 0x0, symName: __ZNKSt3__112basic_stringIcNS_11char_traitsIcEENS_9allocatorIcEEE18__get_long_pointerB8ue170006Ev, symObjAddr: 0x200C, symBinAddr: 0x1000047AC, symSize: 0x28 }
  - { offsetInCU: 0xAEF9, offset: 0x105E7, size: 0x8, addend: 0x0, symName: __ZNKSt3__112basic_stringIcNS_11char_traitsIcEENS_9allocatorIcEEE19__get_short_pointerB8ue170006Ev, symObjAddr: 0x2034, symBinAddr: 0x1000047D4, symSize: 0x28 }
  - { offsetInCU: 0xAF1E, offset: 0x1060C, size: 0x8, addend: 0x0, symName: __ZNKSt3__117__compressed_pairINS_12basic_stringIcNS_11char_traitsIcEENS_9allocatorIcEEE5__repES5_E5firstB8ue170006Ev, symObjAddr: 0x205C, symBinAddr: 0x1000047FC, symSize: 0x24 }
  - { offsetInCU: 0xAF43, offset: 0x10631, size: 0x8, addend: 0x0, symName: __ZNKSt3__122__compressed_pair_elemINS_12basic_stringIcNS_11char_traitsIcEENS_9allocatorIcEEE5__repELi0ELb0EE5__getB8ue170006Ev, symObjAddr: 0x2080, symBinAddr: 0x100004820, symSize: 0x14 }
  - { offsetInCU: 0xAF68, offset: 0x10656, size: 0x8, addend: 0x0, symName: __ZNSt3__114pointer_traitsIPKcE10pointer_toB8ue170006ERS1_, symObjAddr: 0x2094, symBinAddr: 0x100004834, symSize: 0x14 }
  - { offsetInCU: 0xAF8A, offset: 0x10678, size: 0x8, addend: 0x0, symName: __ZNSt3__119ostreambuf_iteratorIcNS_11char_traitsIcEEEC2B8ue170006ERNS_13basic_ostreamIcS2_EE, symObjAddr: 0x20A8, symBinAddr: 0x100004848, symSize: 0x68 }
  - { offsetInCU: 0xAFC1, offset: 0x106AF, size: 0x8, addend: 0x0, symName: __ZNKSt3__19basic_iosIcNS_11char_traitsIcEEE5rdbufB8ue170006Ev, symObjAddr: 0x2110, symBinAddr: 0x1000048B0, symSize: 0x24 }
  - { offsetInCU: 0xAFE8, offset: 0x106D6, size: 0x8, addend: 0x0, symName: __ZNKSt3__18ios_base5rdbufB8ue170006Ev, symObjAddr: 0x2134, symBinAddr: 0x1000048D4, symSize: 0x18 }
  - { offsetInCU: 0xB00D, offset: 0x106FB, size: 0x8, addend: 0x0, symName: __ZNSt3__111char_traitsIcE11eq_int_typeB8ue170006Eii, symObjAddr: 0x214C, symBinAddr: 0x1000048EC, symSize: 0x28 }
  - { offsetInCU: 0xB040, offset: 0x1072E, size: 0x8, addend: 0x0, symName: __ZNSt3__111char_traitsIcE3eofB8ue170006Ev, symObjAddr: 0x2174, symBinAddr: 0x100004914, symSize: 0x8 }
  - { offsetInCU: 0xB054, offset: 0x10742, size: 0x8, addend: 0x0, symName: __ZNKSt3__19basic_iosIcNS_11char_traitsIcEEE5widenB8ue170006Ec, symObjAddr: 0x217C, symBinAddr: 0x10000491C, symSize: 0x8C }
  - { offsetInCU: 0xB0B7, offset: 0x107A5, size: 0x8, addend: 0x0, symName: __ZNKSt3__15ctypeIcE5widenB8ue170006Ec, symObjAddr: 0x2234, symBinAddr: 0x1000049D4, symSize: 0x38 }
  - { offsetInCU: 0xB0EB, offset: 0x107D9, size: 0x8, addend: 0x0, symName: __ZNSt3__18ios_base8setstateB8ue170006Ej, symObjAddr: 0x226C, symBinAddr: 0x100004A0C, symSize: 0x34 }
  - { offsetInCU: 0xB120, offset: 0x1080E, size: 0x8, addend: 0x0, symName: __ZNSt3__112basic_stringIcNS_11char_traitsIcEENS_9allocatorIcEEEC2B8ue170006Ev, symObjAddr: 0x22C4, symBinAddr: 0x100004A40, symSize: 0x3C }
  - { offsetInCU: 0xB149, offset: 0x10837, size: 0x8, addend: 0x0, symName: __ZNSt3__112basic_stringIcNS_11char_traitsIcEENS_9allocatorIcEEE14__default_initB8ue170006Ev, symObjAddr: 0x2300, symBinAddr: 0x100004A7C, symSize: 0xB0 }
  - { offsetInCU: 0xB19B, offset: 0x10889, size: 0x8, addend: 0x0, symName: __ZNSt3__117__compressed_pairINS_12basic_stringIcNS_11char_traitsIcEENS_9allocatorIcEEE5__repES5_E5firstB8ue170006Ev, symObjAddr: 0x23B0, symBinAddr: 0x100004B2C, symSize: 0x24 }
  - { offsetInCU: 0xB1C0, offset: 0x108AE, size: 0x8, addend: 0x0, symName: __ZNSt3__112basic_stringIcNS_11char_traitsIcEENS_9allocatorIcEEE11__recommendB8ue170006Em, symObjAddr: 0x23D4, symBinAddr: 0x100004B50, symSize: 0x9C }
  - { offsetInCU: 0xB1F2, offset: 0x108E0, size: 0x8, addend: 0x0, symName: __ZNSt3__116allocator_traitsINS_9allocatorIcEEE8allocateB8ue170006ERS2_m, symObjAddr: 0x2470, symBinAddr: 0x100004BEC, symSize: 0x2C }
  - { offsetInCU: 0xB224, offset: 0x10912, size: 0x8, addend: 0x0, symName: __ZNSt3__112basic_stringIcNS_11char_traitsIcEENS_9allocatorIcEEE7__allocB8ue170006Ev, symObjAddr: 0x249C, symBinAddr: 0x100004C18, symSize: 0x24 }
  - { offsetInCU: 0xB249, offset: 0x10937, size: 0x8, addend: 0x0, symName: __ZNSt3__112basic_stringIcNS_11char_traitsIcEENS_9allocatorIcEEE16__begin_lifetimeB8ue170006EPcm, symObjAddr: 0x24C0, symBinAddr: 0x100004C3C, symSize: 0x14 }
  - { offsetInCU: 0xB27C, offset: 0x1096A, size: 0x8, addend: 0x0, symName: __ZNSt3__112basic_stringIcNS_11char_traitsIcEENS_9allocatorIcEEE18__set_long_pointerB8ue170006EPc, symObjAddr: 0x24D4, symBinAddr: 0x100004C50, symSize: 0x38 }
  - { offsetInCU: 0xB2B0, offset: 0x1099E, size: 0x8, addend: 0x0, symName: __ZNSt3__112basic_stringIcNS_11char_traitsIcEENS_9allocatorIcEEE14__set_long_capB8ue170006Em, symObjAddr: 0x250C, symBinAddr: 0x100004C88, symSize: 0x70 }
  - { offsetInCU: 0xB2E4, offset: 0x109D2, size: 0x8, addend: 0x0, symName: __ZNSt3__112basic_stringIcNS_11char_traitsIcEENS_9allocatorIcEEE15__set_long_sizeB8ue170006Em, symObjAddr: 0x257C, symBinAddr: 0x100004CF8, symSize: 0x38 }
  - { offsetInCU: 0xB318, offset: 0x10A06, size: 0x8, addend: 0x0, symName: __ZNSt3__122__compressed_pair_elemINS_12basic_stringIcNS_11char_traitsIcEENS_9allocatorIcEEE5__repELi0ELb0EE5__getB8ue170006Ev, symObjAddr: 0x25B4, symBinAddr: 0x100004D30, symSize: 0x14 }
  - { offsetInCU: 0xB33D, offset: 0x10A2B, size: 0x8, addend: 0x0, symName: __ZNSt3__112basic_stringIcNS_11char_traitsIcEENS_9allocatorIcEEE10__align_itB8ue170006ILm16EEEmm, symObjAddr: 0x25C8, symBinAddr: 0x100004D44, symSize: 0x1C }
  - { offsetInCU: 0xB36B, offset: 0x10A59, size: 0x8, addend: 0x0, symName: __ZNSt3__19allocatorIcE8allocateB8ue170006Em, symObjAddr: 0x25E4, symBinAddr: 0x100004D60, symSize: 0x84 }
  - { offsetInCU: 0xB3A8, offset: 0x10A96, size: 0x8, addend: 0x0, symName: __ZNSt3__116allocator_traitsINS_9allocatorIcEEE8max_sizeB8ue170006IS2_vEEmRKS2_, symObjAddr: 0x2668, symBinAddr: 0x100004DE4, symSize: 0x24 }
  - { offsetInCU: 0xB3D5, offset: 0x10AC3, size: 0x8, addend: 0x0, symName: __ZNKSt3__19allocatorIcE8max_sizeB8ue170006Ev, symObjAddr: 0x26E8, symBinAddr: 0x100004E64, symSize: 0x14 }
  - { offsetInCU: 0xB3FA, offset: 0x10AE8, size: 0x8, addend: 0x0, symName: __ZNSt3__117__compressed_pairINS_12basic_stringIcNS_11char_traitsIcEENS_9allocatorIcEEE5__repES5_E6secondB8ue170006Ev, symObjAddr: 0x2720, symBinAddr: 0x100004E9C, symSize: 0x24 }
  - { offsetInCU: 0xB41F, offset: 0x10B0D, size: 0x8, addend: 0x0, symName: __ZNSt3__122__compressed_pair_elemINS_9allocatorIcEELi1ELb1EE5__getB8ue170006Ev, symObjAddr: 0x2744, symBinAddr: 0x100004EC0, symSize: 0x14 }
  - { offsetInCU: 0xB4D6, offset: 0x10BC4, size: 0x8, addend: 0x0, symName: __ZNKSt3__113basic_istreamIcNS_11char_traitsIcEEE6sentrycvbB8ue170006Ev, symObjAddr: 0x2758, symBinAddr: 0x100004ED4, symSize: 0x1C }
  - { offsetInCU: 0xB4FB, offset: 0x10BE9, size: 0x8, addend: 0x0, symName: __ZNSt3__112basic_stringIcNS_11char_traitsIcEENS_9allocatorIcEEE5clearB8ue170006Ev, symObjAddr: 0x2774, symBinAddr: 0x100004EF0, symSize: 0x78 }
  - { offsetInCU: 0xB522, offset: 0x10C10, size: 0x8, addend: 0x0, symName: __ZNKSt3__112basic_stringIcNS_11char_traitsIcEENS_9allocatorIcEEE8max_sizeB8ue170006Ev, symObjAddr: 0x27EC, symBinAddr: 0x100004F68, symSize: 0xAC }
  - { offsetInCU: 0xB574, offset: 0x10C62, size: 0x8, addend: 0x0, symName: __ZNSt3__114numeric_limitsIlE3maxB8ue170006Ev, symObjAddr: 0x2898, symBinAddr: 0x100005014, symSize: 0x14 }
  - { offsetInCU: 0xB588, offset: 0x10C76, size: 0x8, addend: 0x0, symName: __ZNSt3__115basic_streambufIcNS_11char_traitsIcEEE5sgetcB8ue170006Ev, symObjAddr: 0x28AC, symBinAddr: 0x100005028, symSize: 0x70 }
  - { offsetInCU: 0xB5AD, offset: 0x10C9B, size: 0x8, addend: 0x0, symName: __ZNSt3__111char_traitsIcE12to_char_typeB8ue170006Ei, symObjAddr: 0x291C, symBinAddr: 0x100005098, symSize: 0x18 }
  - { offsetInCU: 0xB5D0, offset: 0x10CBE, size: 0x8, addend: 0x0, symName: __ZNKSt3__15ctypeIcE2isB8ue170006Ejc, symObjAddr: 0x2934, symBinAddr: 0x1000050B0, symSize: 0x7C }
  - { offsetInCU: 0xB613, offset: 0x10D01, size: 0x8, addend: 0x0, symName: __ZNSt3__115basic_streambufIcNS_11char_traitsIcEEE6sbumpcB8ue170006Ev, symObjAddr: 0x29B0, symBinAddr: 0x10000512C, symSize: 0x78 }
  - { offsetInCU: 0xB638, offset: 0x10D26, size: 0x8, addend: 0x0, symName: __ZNSt3__18ios_base18__setstate_nothrowB8ue170006Ej, symObjAddr: 0x2A28, symBinAddr: 0x1000051A4, symSize: 0x64 }
  - { offsetInCU: 0xB66C, offset: 0x10D5A, size: 0x8, addend: 0x0, symName: __ZNKSt3__19basic_iosIcNS_11char_traitsIcEEE10exceptionsB8ue170006Ev, symObjAddr: 0x2A8C, symBinAddr: 0x100005208, symSize: 0x24 }
  - { offsetInCU: 0xB691, offset: 0x10D7F, size: 0x8, addend: 0x0, symName: __ZNSt3__111char_traitsIcE6assignB8ue170006ERcRKc, symObjAddr: 0x2AB0, symBinAddr: 0x10000522C, symSize: 0x24 }
  - { offsetInCU: 0xB6C2, offset: 0x10DB0, size: 0x8, addend: 0x0, symName: __ZNSt3__112basic_stringIcNS_11char_traitsIcEENS_9allocatorIcEEE18__get_long_pointerB8ue170006Ev, symObjAddr: 0x2AD4, symBinAddr: 0x100005250, symSize: 0x28 }
  - { offsetInCU: 0xB6E7, offset: 0x10DD5, size: 0x8, addend: 0x0, symName: __ZNSt3__112basic_stringIcNS_11char_traitsIcEENS_9allocatorIcEEE19__get_short_pointerB8ue170006Ev, symObjAddr: 0x2AFC, symBinAddr: 0x100005278, symSize: 0x28 }
  - { offsetInCU: 0xB70C, offset: 0x10DFA, size: 0x8, addend: 0x0, symName: __ZNSt3__112basic_stringIcNS_11char_traitsIcEENS_9allocatorIcEEE16__set_short_sizeB8ue170006Em, symObjAddr: 0x2B24, symBinAddr: 0x1000052A0, symSize: 0x78 }
  - { offsetInCU: 0xB740, offset: 0x10E2E, size: 0x8, addend: 0x0, symName: __ZNSt3__114pointer_traitsIPcE10pointer_toB8ue170006ERc, symObjAddr: 0x2B9C, symBinAddr: 0x100005318, symSize: 0x14 }
  - { offsetInCU: 0xB763, offset: 0x10E51, size: 0x8, addend: 0x0, symName: __ZNKSt3__112basic_stringIcNS_11char_traitsIcEENS_9allocatorIcEEE7__allocB8ue170006Ev, symObjAddr: 0x2BB0, symBinAddr: 0x10000532C, symSize: 0x24 }
  - { offsetInCU: 0xB788, offset: 0x10E76, size: 0x8, addend: 0x0, symName: __ZNSt3__114numeric_limitsImE3maxB8ue170006Ev, symObjAddr: 0x2BD4, symBinAddr: 0x100005350, symSize: 0x14 }
  - { offsetInCU: 0xB79C, offset: 0x10E8A, size: 0x8, addend: 0x0, symName: __ZNKSt3__117__compressed_pairINS_12basic_stringIcNS_11char_traitsIcEENS_9allocatorIcEEE5__repES5_E6secondB8ue170006Ev, symObjAddr: 0x2BE8, symBinAddr: 0x100005364, symSize: 0x24 }
  - { offsetInCU: 0xB7C1, offset: 0x10EAF, size: 0x8, addend: 0x0, symName: __ZNKSt3__122__compressed_pair_elemINS_9allocatorIcEELi1ELb1EE5__getB8ue170006Ev, symObjAddr: 0x2C0C, symBinAddr: 0x100005388, symSize: 0x14 }
  - { offsetInCU: 0xB7E6, offset: 0x10ED4, size: 0x8, addend: 0x0, symName: __ZNSt3__123__libcpp_numeric_limitsImLb1EE3maxB8ue170006Ev, symObjAddr: 0x2C20, symBinAddr: 0x10000539C, symSize: 0x8 }
  - { offsetInCU: 0xB7FA, offset: 0x10EE8, size: 0x8, addend: 0x0, symName: __ZNSt3__123__libcpp_numeric_limitsIlLb1EE3maxB8ue170006Ev, symObjAddr: 0x2C28, symBinAddr: 0x1000053A4, symSize: 0x8 }
  - { offsetInCU: 0xB80E, offset: 0x10EFC, size: 0x8, addend: 0x0, symName: __ZNSt3__111char_traitsIcE11to_int_typeB8ue170006Ec, symObjAddr: 0x2C30, symBinAddr: 0x1000053AC, symSize: 0x14 }
  - { offsetInCU: 0xB831, offset: 0x10F1F, size: 0x8, addend: 0x0, symName: __Z7isasciii, symObjAddr: 0x2C44, symBinAddr: 0x1000053C0, symSize: 0x24 }
  - { offsetInCU: 0xB85E, offset: 0x10F4C, size: 0x8, addend: 0x0, symName: __ZNKSt3__18ios_base10exceptionsB8ue170006Ev, symObjAddr: 0x2C68, symBinAddr: 0x1000053E4, symSize: 0x18 }
  - { offsetInCU: 0x4C3E, offset: 0x15C5F, size: 0x8, addend: 0x0, symName: __ZNSt3__1lsB8ue170006IcNS_11char_traitsIcEENS_9allocatorIcEEEERNS_13basic_ostreamIT_T0_EES9_RKNS_12basic_stringIS6_S7_T1_EE, symObjAddr: 0xD90, symBinAddr: 0x100006154, symSize: 0x4C }
  - { offsetInCU: 0x4C96, offset: 0x15CB7, size: 0x8, addend: 0x0, symName: __ZNSt3__14endlB8ue170006IcNS_11char_traitsIcEEEERNS_13basic_ostreamIT_T0_EES7_, symObjAddr: 0xE50, symBinAddr: 0x1000061CC, symSize: 0x58 }
  - { offsetInCU: 0x4CD6, offset: 0x15CF7, size: 0x8, addend: 0x0, symName: __ZNSt3__17getlineB8ue170006IcNS_11char_traitsIcEENS_9allocatorIcEEEERNS_13basic_istreamIT_T0_EES9_RNS_12basic_stringIS6_S7_T1_EE, symObjAddr: 0xEA8, symBinAddr: 0x100006224, symSize: 0x5C }
  - { offsetInCU: 0x50AD, offset: 0x160CE, size: 0x8, addend: 0x0, symName: __ZNSt3__1eqB8ue170006IcNS_11char_traitsIcEENS_9allocatorIcEEEEbRKNS_12basic_stringIT_T0_T1_EEPKS6_, symObjAddr: 0x1368, symBinAddr: 0x1000063D4, symSize: 0xC0 }
  - { offsetInCU: 0x5114, offset: 0x16135, size: 0x8, addend: 0x0, symName: __ZNSt3__1eqB8ue170006INS_9allocatorIcEEEEbRKNS_12basic_stringIcNS_11char_traitsIcEET_EES9_, symObjAddr: 0x1428, symBinAddr: 0x100006494, symSize: 0x148 }
  - { offsetInCU: 0x519D, offset: 0x161BE, size: 0x8, addend: 0x0, symName: __ZNSt3__17getlineB8ue170006IcNS_11char_traitsIcEENS_9allocatorIcEEEERNS_13basic_istreamIT_T0_EES9_RNS_12basic_stringIS6_S7_T1_EES6_, symObjAddr: 0x2EA4, symBinAddr: 0x100006F14, symSize: 0x238 }
  - { offsetInCU: 0x7501, offset: 0x18522, size: 0x8, addend: 0x0, symName: __ZN8Vehiculo8getMarcaEv, symObjAddr: 0x0, symBinAddr: 0x1000053FC, symSize: 0x38 }
  - { offsetInCU: 0x7527, offset: 0x18548, size: 0x8, addend: 0x0, symName: __ZN8Vehiculo17getPrecioVehiculoEv, symObjAddr: 0x38, symBinAddr: 0x100005434, symSize: 0x18 }
  - { offsetInCU: 0x754E, offset: 0x1856F, size: 0x8, addend: 0x0, symName: __ZN8Vehiculo19getPrecioAccesorio1Ev, symObjAddr: 0x50, symBinAddr: 0x10000544C, symSize: 0x18 }
  - { offsetInCU: 0x7575, offset: 0x18596, size: 0x8, addend: 0x0, symName: __ZN8Vehiculo19getPrecioAccesorio2Ev, symObjAddr: 0x68, symBinAddr: 0x100005464, symSize: 0x18 }
  - { offsetInCU: 0x759C, offset: 0x185BD, size: 0x8, addend: 0x0, symName: __ZN8Vehiculo19getNombreAccesorio1Ev, symObjAddr: 0x80, symBinAddr: 0x10000547C, symSize: 0x3C }
  - { offsetInCU: 0x75C2, offset: 0x185E3, size: 0x8, addend: 0x0, symName: __ZN8Vehiculo19getNombreAccesorio2Ev, symObjAddr: 0xBC, symBinAddr: 0x1000054B8, symSize: 0x3C }
  - { offsetInCU: 0x75E8, offset: 0x18609, size: 0x8, addend: 0x0, symName: __ZN8Vehiculo20getCantidadVehiculosEv, symObjAddr: 0xF8, symBinAddr: 0x1000054F4, symSize: 0x18 }
  - { offsetInCU: 0x760F, offset: 0x18630, size: 0x8, addend: 0x0, symName: __ZN8Vehiculo17setPrecioVehiculoEi, symObjAddr: 0x110, symBinAddr: 0x10000550C, symSize: 0x20 }
  - { offsetInCU: 0x7644, offset: 0x18665, size: 0x8, addend: 0x0, symName: __ZN8Vehiculo8setMarcaENSt3__112basic_stringIcNS0_11char_traitsIcEENS0_9allocatorIcEEEE, symObjAddr: 0x130, symBinAddr: 0x10000552C, symSize: 0x2C }
  - { offsetInCU: 0x7679, offset: 0x1869A, size: 0x8, addend: 0x0, symName: __ZN8Vehiculo19setPrecioAccesorio1Ei, symObjAddr: 0x15C, symBinAddr: 0x100005558, symSize: 0x20 }
  - { offsetInCU: 0x76AE, offset: 0x186CF, size: 0x8, addend: 0x0, symName: __ZN8Vehiculo19setPrecioAccesorio2Ei, symObjAddr: 0x17C, symBinAddr: 0x100005578, symSize: 0x20 }
  - { offsetInCU: 0x76E3, offset: 0x18704, size: 0x8, addend: 0x0, symName: __ZN8Vehiculo19setNombreAccesorio1ENSt3__112basic_stringIcNS0_11char_traitsIcEENS0_9allocatorIcEEEE, symObjAddr: 0x19C, symBinAddr: 0x100005598, symSize: 0x30 }
  - { offsetInCU: 0x7718, offset: 0x18739, size: 0x8, addend: 0x0, symName: __ZN8Vehiculo19setNombreAccesorio2ENSt3__112basic_stringIcNS0_11char_traitsIcEENS0_9allocatorIcEEEE, symObjAddr: 0x1CC, symBinAddr: 0x1000055C8, symSize: 0x30 }
  - { offsetInCU: 0x774D, offset: 0x1876E, size: 0x8, addend: 0x0, symName: __ZN8Vehiculo20setCantidadVehiculosEi, symObjAddr: 0x1FC, symBinAddr: 0x1000055F8, symSize: 0x20 }
  - { offsetInCU: 0x7783, offset: 0x187A4, size: 0x8, addend: 0x0, symName: __ZN8VehiculoC2Ev, symObjAddr: 0x21C, symBinAddr: 0x100005618, symSize: 0xD8 }
  - { offsetInCU: 0x77AD, offset: 0x187CE, size: 0x8, addend: 0x0, symName: __ZNSt3__112basic_stringIcNS_11char_traitsIcEENS_9allocatorIcEEEaSB8ue170006EPKc, symObjAddr: 0x320, symBinAddr: 0x1000056F0, symSize: 0x2C }
  - { offsetInCU: 0x77E1, offset: 0x18802, size: 0x8, addend: 0x0, symName: __ZN8VehiculoC1Ev, symObjAddr: 0x358, symBinAddr: 0x10000571C, symSize: 0x2C }
  - { offsetInCU: 0x780A, offset: 0x1882B, size: 0x8, addend: 0x0, symName: __ZN8Vehiculo21getCantidadAccesorio1Ev, symObjAddr: 0x384, symBinAddr: 0x100005748, symSize: 0x18 }
  - { offsetInCU: 0x7831, offset: 0x18852, size: 0x8, addend: 0x0, symName: __ZN8Vehiculo21setCantidadAccesorio1Ei, symObjAddr: 0x39C, symBinAddr: 0x100005760, symSize: 0x20 }
  - { offsetInCU: 0x7866, offset: 0x18887, size: 0x8, addend: 0x0, symName: __ZN8Vehiculo21getCantidadAccesorio2Ev, symObjAddr: 0x3BC, symBinAddr: 0x100005780, symSize: 0x18 }
  - { offsetInCU: 0x788D, offset: 0x188AE, size: 0x8, addend: 0x0, symName: __ZN8Vehiculo21setCantidadAccesorio2Ei, symObjAddr: 0x3D4, symBinAddr: 0x100005798, symSize: 0x20 }
  - { offsetInCU: 0x78C2, offset: 0x188E3, size: 0x8, addend: 0x0, symName: __ZN8Vehiculo14setDataArchivoEiNSt3__112basic_stringIcNS0_11char_traitsIcEENS0_9allocatorIcEEEE, symObjAddr: 0x3F4, symBinAddr: 0x1000057B8, symSize: 0x7F4 }
  - { offsetInCU: 0x7AF0, offset: 0x18B11, size: 0x8, addend: 0x0, symName: __ZNSt3__114basic_ifstreamIcNS_11char_traitsIcEEEC1ERKNS_12basic_stringIcS2_NS_9allocatorIcEEEEj, symObjAddr: 0xBE8, symBinAddr: 0x100005FAC, symSize: 0x17C }
  - { offsetInCU: 0x7B39, offset: 0x18B5A, size: 0x8, addend: 0x0, symName: __ZNKSt3__114basic_ifstreamIcNS_11char_traitsIcEEE7is_openEv, symObjAddr: 0xD64, symBinAddr: 0x100006128, symSize: 0x2C }
  - { offsetInCU: 0x7B60, offset: 0x18B81, size: 0x8, addend: 0x0, symName: __ZNSt3__113basic_ostreamIcNS_11char_traitsIcEEElsB8ue170006EPFRS3_S4_E, symObjAddr: 0xE24, symBinAddr: 0x1000061A0, symSize: 0x2C }
  - { offsetInCU: 0x7B93, offset: 0x18BB4, size: 0x8, addend: 0x0, symName: __ZNKSt3__19basic_iosIcNS_11char_traitsIcEEEcvPvB8ue170006Ev, symObjAddr: 0xF04, symBinAddr: 0x100006280, symSize: 0x4C }
  - { offsetInCU: 0x7C08, offset: 0x18C29, size: 0x8, addend: 0x0, symName: __ZNSt3__119basic_istringstreamIcNS_11char_traitsIcEENS_9allocatorIcEEEC1B8ue170006ERKNS_12basic_stringIcS2_S4_EEj, symObjAddr: 0xF50, symBinAddr: 0x1000062CC, symSize: 0x108 }
  - { offsetInCU: 0x7C53, offset: 0x18C74, size: 0x8, addend: 0x0, symName: __ZNSt3__119basic_istringstreamIcNS_11char_traitsIcEENS_9allocatorIcEEED1Ev, symObjAddr: 0x1570, symBinAddr: 0x1000065DC, symSize: 0x70 }
  - { offsetInCU: 0x7C7F, offset: 0x18CA0, size: 0x8, addend: 0x0, symName: __ZNSt3__114basic_ifstreamIcNS_11char_traitsIcEEE5closeEv, symObjAddr: 0x15E0, symBinAddr: 0x10000664C, symSize: 0x58 }
  - { offsetInCU: 0x7CAB, offset: 0x18CCC, size: 0x8, addend: 0x0, symName: __ZNSt3__114basic_ifstreamIcNS_11char_traitsIcEEED1Ev, symObjAddr: 0x1638, symBinAddr: 0x1000066A4, symSize: 0x70 }
  - { offsetInCU: 0x7CD6, offset: 0x18CF7, size: 0x8, addend: 0x0, symName: __ZN8Vehiculo20limpiarDatosVehiculoEv, symObjAddr: 0x16A8, symBinAddr: 0x100006714, symSize: 0x68 }
  - { offsetInCU: 0x7CFC, offset: 0x18D1D, size: 0x8, addend: 0x0, symName: __ZN8Vehiculo21imprimirDatosVehiculoEv, symObjAddr: 0x1710, symBinAddr: 0x10000677C, symSize: 0x320 }
  - { offsetInCU: 0x7D23, offset: 0x18D44, size: 0x8, addend: 0x0, symName: __ZNSt3__119basic_istringstreamIcNS_11char_traitsIcEENS_9allocatorIcEEED2Ev, symObjAddr: 0x1A30, symBinAddr: 0x100006A9C, symSize: 0x9C }
  - { offsetInCU: 0x7D5B, offset: 0x18D7C, size: 0x8, addend: 0x0, symName: __ZTv0_n24_NSt3__119basic_istringstreamIcNS_11char_traitsIcEENS_9allocatorIcEEED1Ev, symObjAddr: 0x1ACC, symBinAddr: 0x100006B38, symSize: 0x28 }
  - { offsetInCU: 0x7D77, offset: 0x18D98, size: 0x8, addend: 0x0, symName: __ZNSt3__115basic_stringbufIcNS_11char_traitsIcEENS_9allocatorIcEEED1Ev, symObjAddr: 0x1AF4, symBinAddr: 0x100006B60, symSize: 0x2C }
  - { offsetInCU: 0x7DA3, offset: 0x18DC4, size: 0x8, addend: 0x0, symName: __ZNSt3__115basic_stringbufIcNS_11char_traitsIcEENS_9allocatorIcEEED2Ev, symObjAddr: 0x1B20, symBinAddr: 0x100006B8C, symSize: 0x78 }
  - { offsetInCU: 0x7DCF, offset: 0x18DF0, size: 0x8, addend: 0x0, symName: __ZNSt3__114basic_ifstreamIcNS_11char_traitsIcEEED2Ev, symObjAddr: 0x1B98, symBinAddr: 0x100006C04, symSize: 0x9C }
  - { offsetInCU: 0x7E07, offset: 0x18E28, size: 0x8, addend: 0x0, symName: __ZTv0_n24_NSt3__114basic_ifstreamIcNS_11char_traitsIcEEED1Ev, symObjAddr: 0x1C34, symBinAddr: 0x100006CA0, symSize: 0x28 }
  - { offsetInCU: 0x7E23, offset: 0x18E44, size: 0x8, addend: 0x0, symName: __ZNSt3__19basic_iosIcNS_11char_traitsIcEEEC2B8ue170006Ev, symObjAddr: 0x21F4, symBinAddr: 0x100006CC8, symSize: 0x44 }
  - { offsetInCU: 0x7E4B, offset: 0x18E6C, size: 0x8, addend: 0x0, symName: __ZNSt3__113basic_istreamIcNS_11char_traitsIcEEEC2B8ue170006EPNS_15basic_streambufIcS2_EE, symObjAddr: 0x2238, symBinAddr: 0x100006D0C, symSize: 0x64 }
  - { offsetInCU: 0x7E8D, offset: 0x18EAE, size: 0x8, addend: 0x0, symName: __ZNSt3__113basic_filebufIcNS_11char_traitsIcEEE4openERKNS_12basic_stringIcS2_NS_9allocatorIcEEEEj, symObjAddr: 0x229C, symBinAddr: 0x100006D70, symSize: 0x44 }
  - { offsetInCU: 0x7ED0, offset: 0x18EF1, size: 0x8, addend: 0x0, symName: __ZNSt3__18ios_baseC2B8ue170006Ev, symObjAddr: 0x230C, symBinAddr: 0x100006DB4, symSize: 0x24 }
  - { offsetInCU: 0x7EF8, offset: 0x18F19, size: 0x8, addend: 0x0, symName: __ZNSt3__19basic_iosIcNS_11char_traitsIcEEE4initB8ue170006EPNS_15basic_streambufIcS2_EE, symObjAddr: 0x2330, symBinAddr: 0x100006DD8, symSize: 0x44 }
  - { offsetInCU: 0x7F2E, offset: 0x18F4F, size: 0x8, addend: 0x0, symName: __ZNKSt3__112basic_stringIcNS_11char_traitsIcEENS_9allocatorIcEEE5c_strB8ue170006Ev, symObjAddr: 0x237C, symBinAddr: 0x100006E1C, symSize: 0x24 }
  - { offsetInCU: 0x7F53, offset: 0x18F74, size: 0x8, addend: 0x0, symName: __ZNKSt3__113basic_filebufIcNS_11char_traitsIcEEE7is_openEv, symObjAddr: 0x2574, symBinAddr: 0x100006E40, symSize: 0x24 }
  - { offsetInCU: 0x7F98, offset: 0x18FB9, size: 0x8, addend: 0x0, symName: __ZNKSt3__112basic_stringIcNS_11char_traitsIcEENS_9allocatorIcEEE4sizeB8ue170006Ev, symObjAddr: 0x2DF4, symBinAddr: 0x100006E64, symSize: 0x54 }
  - { offsetInCU: 0x7FBD, offset: 0x18FDE, size: 0x8, addend: 0x0, symName: __ZNKSt3__112basic_stringIcNS_11char_traitsIcEENS_9allocatorIcEEE15__get_long_sizeB8ue170006Ev, symObjAddr: 0x2E48, symBinAddr: 0x100006EB8, symSize: 0x28 }
  - { offsetInCU: 0x7FE2, offset: 0x19003, size: 0x8, addend: 0x0, symName: __ZNKSt3__112basic_stringIcNS_11char_traitsIcEENS_9allocatorIcEEE16__get_short_sizeB8ue170006Ev, symObjAddr: 0x2E70, symBinAddr: 0x100006EE0, symSize: 0x34 }
  - { offsetInCU: 0x8025, offset: 0x19046, size: 0x8, addend: 0x0, symName: __ZNSt3__111char_traitsIcE2eqEcc, symObjAddr: 0x3200, symBinAddr: 0x10000714C, symSize: 0x28 }
  - { offsetInCU: 0x8056, offset: 0x19077, size: 0x8, addend: 0x0, symName: __ZNKSt3__19basic_iosIcNS_11char_traitsIcEEE4failB8ue170006Ev, symObjAddr: 0x3500, symBinAddr: 0x100007174, symSize: 0x28 }
  - { offsetInCU: 0x807B, offset: 0x1909C, size: 0x8, addend: 0x0, symName: __ZNKSt3__18ios_base4failB8ue170006Ev, symObjAddr: 0x3528, symBinAddr: 0x10000719C, symSize: 0x28 }
  - { offsetInCU: 0x80A2, offset: 0x190C3, size: 0x8, addend: 0x0, symName: __ZNSt3__115basic_stringbufIcNS_11char_traitsIcEENS_9allocatorIcEEEC1B8ue170006ERKNS_12basic_stringIcS2_S4_EEj, symObjAddr: 0x3550, symBinAddr: 0x1000071C4, symSize: 0x3C }
  - { offsetInCU: 0x80E8, offset: 0x19109, size: 0x8, addend: 0x0, symName: __ZNSt3__115basic_stringbufIcNS_11char_traitsIcEENS_9allocatorIcEEEC2B8ue170006ERKNS_12basic_stringIcS2_S4_EEj, symObjAddr: 0x358C, symBinAddr: 0x100007200, symSize: 0xD8 }
  - { offsetInCU: 0x812E, offset: 0x1914F, size: 0x8, addend: 0x0, symName: __ZNKSt3__112basic_stringIcNS_11char_traitsIcEENS_9allocatorIcEEE13get_allocatorB8ue170006Ev, symObjAddr: 0x3664, symBinAddr: 0x1000072D8, symSize: 0x24 }
  - { offsetInCU: 0x8153, offset: 0x19174, size: 0x8, addend: 0x0, symName: __ZNSt3__112basic_stringIcNS_11char_traitsIcEENS_9allocatorIcEEEC1B8ue170006ERKS4_, symObjAddr: 0x3688, symBinAddr: 0x1000072FC, symSize: 0x34 }
  - { offsetInCU: 0x818A, offset: 0x191AB, size: 0x8, addend: 0x0, symName: __ZNSt3__112basic_stringIcNS_11char_traitsIcEENS_9allocatorIcEEEC2B8ue170006ERKS4_, symObjAddr: 0x36BC, symBinAddr: 0x100007330, symSize: 0x40 }
  - { offsetInCU: 0x81C1, offset: 0x191E2, size: 0x8, addend: 0x0, symName: __ZNSt3__117__compressed_pairINS_12basic_stringIcNS_11char_traitsIcEENS_9allocatorIcEEE5__repES5_EC1B8ue170006INS_18__default_init_tagERKS5_EEOT_OT0_, symObjAddr: 0x36FC, symBinAddr: 0x100007370, symSize: 0x3C }
  - { offsetInCU: 0x8217, offset: 0x19238, size: 0x8, addend: 0x0, symName: __ZNSt3__117__compressed_pairINS_12basic_stringIcNS_11char_traitsIcEENS_9allocatorIcEEE5__repES5_EC2B8ue170006INS_18__default_init_tagERKS5_EEOT_OT0_, symObjAddr: 0x3738, symBinAddr: 0x1000073AC, symSize: 0x40 }
  - { offsetInCU: 0x826D, offset: 0x1928E, size: 0x8, addend: 0x0, symName: __ZNSt3__122__compressed_pair_elemINS_9allocatorIcEELi1ELb1EEC2B8ue170006IRKS2_vEEOT_, symObjAddr: 0x3778, symBinAddr: 0x1000073EC, symSize: 0x18 }
  - { offsetInCU: 0x82AD, offset: 0x192CE, size: 0x8, addend: 0x0, symName: __ZNSt3__111char_traitsIcE7compareB8ue170006EPKcS3_m, symObjAddr: 0x38BC, symBinAddr: 0x100007404, symSize: 0x64 }
  - { offsetInCU: 0x457D, offset: 0x1D8C9, size: 0x8, addend: 0x0, symName: __ZNSt3__16copy_nB8ue170006IPKcmPcEENS_9enable_ifIXsr37__has_random_access_iterator_categoryIT_EE5valueET1_E4typeES5_T0_S6_, symObjAddr: 0x3D3C, symBinAddr: 0x10000A1F0, symSize: 0x44 }
  - { offsetInCU: 0x5AAC, offset: 0x1EDF8, size: 0x8, addend: 0x0, symName: __ZNSt3__1neB8ue170006IP8VehiculoEEbRKNS_11__wrap_iterIT_EES7_, symObjAddr: 0xB6C, symBinAddr: 0x100007F94, symSize: 0x34 }
  - { offsetInCU: 0x5AEF, offset: 0x1EE3B, size: 0x8, addend: 0x0, symName: __ZNSt3__1plB8ue170006IcNS_11char_traitsIcEENS_9allocatorIcEEEENS_12basic_stringIT_T0_T1_EERKS9_PKS6_, symObjAddr: 0xBD8, symBinAddr: 0x100008000, symSize: 0x11C }
  - { offsetInCU: 0x60AF, offset: 0x1F3FB, size: 0x8, addend: 0x0, symName: __ZNSt3__13maxB8ue170006ImEERKT_S3_S3_, symObjAddr: 0x1D44, symBinAddr: 0x100008DBC, symSize: 0x2C }
  - { offsetInCU: 0x60F2, offset: 0x1F43E, size: 0x8, addend: 0x0, symName: __ZNSt3__13minB8ue170006ImEERKT_S3_S3_, symObjAddr: 0x1D70, symBinAddr: 0x100008DE8, symSize: 0x2C }
  - { offsetInCU: 0x6135, offset: 0x1F481, size: 0x8, addend: 0x0, symName: __ZNSt3__13minB8ue170006ImNS_6__lessIvvEEEERKT_S5_S5_T0_, symObjAddr: 0x1DFC, symBinAddr: 0x100008E60, symSize: 0x54 }
  - { offsetInCU: 0x61D6, offset: 0x1F522, size: 0x8, addend: 0x0, symName: __ZNSt3__120__throw_length_errorB8ue170006EPKc, symObjAddr: 0x1EE4, symBinAddr: 0x100008F40, symSize: 0x64 }
  - { offsetInCU: 0x6201, offset: 0x1F54D, size: 0x8, addend: 0x0, symName: __ZNSt3__13maxB8ue170006ImNS_6__lessIvvEEEERKT_S5_S5_T0_, symObjAddr: 0x2028, symBinAddr: 0x100009024, symSize: 0x54 }
  - { offsetInCU: 0x625B, offset: 0x1F5A7, size: 0x8, addend: 0x0, symName: __ZNSt3__119__allocate_at_leastB8ue170006INS_9allocatorI8VehiculoEEEENS_19__allocation_resultINS_16allocator_traitsIT_E7pointerEEERS6_m, symObjAddr: 0x2198, symBinAddr: 0x100009194, symSize: 0x40 }
  - { offsetInCU: 0x629E, offset: 0x1F5EA, size: 0x8, addend: 0x0, symName: __ZNSt3__142__uninitialized_allocator_move_if_noexceptB8ue170006INS_9allocatorI8VehiculoEENS_16reverse_iteratorIPS2_EES6_S6_EET2_RT_T0_T1_S7_, symObjAddr: 0x24E0, symBinAddr: 0x10000937C, symSize: 0x134 }
  - { offsetInCU: 0x633E, offset: 0x1F68A, size: 0x8, addend: 0x0, symName: __ZNSt3__14swapB8ue170006IP8VehiculoEEvRT_S4_, symObjAddr: 0x2660, symBinAddr: 0x1000094FC, symSize: 0x3C }
  - { offsetInCU: 0x6390, offset: 0x1F6DC, size: 0x8, addend: 0x0, symName: __ZNSt3__122__make_exception_guardB8ue170006INS_29_AllocatorDestroyRangeReverseINS_9allocatorI8VehiculoEENS_16reverse_iteratorIPS3_EEEEEENS_28__exception_guard_exceptionsIT_EESA_, symObjAddr: 0x27AC, symBinAddr: 0x100009600, symSize: 0x4C }
  - { offsetInCU: 0x63C6, offset: 0x1F712, size: 0x8, addend: 0x0, symName: __ZNSt3__1neB8ue170006IP8VehiculoS2_EEbRKNS_16reverse_iteratorIT_EERKNS3_IT0_EE, symObjAddr: 0x283C, symBinAddr: 0x100009690, symSize: 0x48 }
  - { offsetInCU: 0x6412, offset: 0x1F75E, size: 0x8, addend: 0x0, symName: __ZNSt3__112__to_addressB8ue170006INS_16reverse_iteratorIP8VehiculoEEvEEu7__decayIDTclsr19__to_address_helperIT_EE6__callclsr3stdE7declvalIRKS5_EEEEES7_, symObjAddr: 0x2884, symBinAddr: 0x1000096D8, symSize: 0x24 }
  - { offsetInCU: 0x6472, offset: 0x1F7BE, size: 0x8, addend: 0x0, symName: __ZNSt3__119__allocator_destroyB8ue170006INS_9allocatorI8VehiculoEENS_16reverse_iteratorINS4_IPS2_EEEES7_EEvRT_T0_T1_, symObjAddr: 0x2B40, symBinAddr: 0x100009994, symSize: 0x70 }
  - { offsetInCU: 0x64D7, offset: 0x1F823, size: 0x8, addend: 0x0, symName: __ZNSt3__1neB8ue170006INS_16reverse_iteratorIP8VehiculoEES4_EEbRKNS1_IT_EERKNS1_IT0_EE, symObjAddr: 0x2BEC, symBinAddr: 0x100009A40, symSize: 0x60 }
  - { offsetInCU: 0x6523, offset: 0x1F86F, size: 0x8, addend: 0x0, symName: __ZNSt3__112__to_addressB8ue170006INS_16reverse_iteratorINS1_IP8VehiculoEEEEvEEu7__decayIDTclsr19__to_address_helperIT_EE6__callclsr3stdE7declvalIRKS6_EEEEES8_, symObjAddr: 0x2C78, symBinAddr: 0x100009AA0, symSize: 0x24 }
  - { offsetInCU: 0x6583, offset: 0x1F8CF, size: 0x8, addend: 0x0, symName: __ZNSt3__1eqB8ue170006IP8VehiculoEEbRKNS_11__wrap_iterIT_EES7_, symObjAddr: 0x3290, symBinAddr: 0x100009EA8, symSize: 0x48 }
  - { offsetInCU: 0x65C6, offset: 0x1F912, size: 0x8, addend: 0x0, symName: __ZNSt3__112__to_addressB8ue170006IcEEPT_S2_, symObjAddr: 0x33B4, symBinAddr: 0x100009F54, symSize: 0x14 }
  - { offsetInCU: 0x65FB, offset: 0x1F947, size: 0x8, addend: 0x0, symName: __ZNSt3__14copyB8ue170006IPKcPcEET0_T_S5_S4_, symObjAddr: 0x3D80, symBinAddr: 0x10000A234, symSize: 0x40 }
  - { offsetInCU: 0x6655, offset: 0x1F9A1, size: 0x8, addend: 0x0, symName: __ZNSt3__16__copyB8ue170006INS_17_ClassicAlgPolicyEPKcS3_PcEENS_4pairIT0_T2_EES6_T1_S7_, symObjAddr: 0x3DC0, symBinAddr: 0x10000A274, symSize: 0x44 }
  - { offsetInCU: 0x66C1, offset: 0x1FA0D, size: 0x8, addend: 0x0, symName: __ZNSt3__123__dispatch_copy_or_moveB8ue170006INS_17_ClassicAlgPolicyENS_11__copy_loopIS1_EENS_14__copy_trivialEPKcS6_PcEENS_4pairIT2_T4_EES9_T3_SA_, symObjAddr: 0x3E04, symBinAddr: 0x10000A2B8, symSize: 0x44 }
  - { offsetInCU: 0x673F, offset: 0x1FA8B, size: 0x8, addend: 0x0, symName: __ZNSt3__121__unwrap_and_dispatchB8ue170006INS_10__overloadINS_11__copy_loopINS_17_ClassicAlgPolicyEEENS_14__copy_trivialEEEPKcS8_PcLi0EEENS_4pairIT0_T2_EESB_T1_SC_, symObjAddr: 0x3E48, symBinAddr: 0x10000A2FC, symSize: 0xB4 }
  - { offsetInCU: 0x67CF, offset: 0x1FB1B, size: 0x8, addend: 0x0, symName: __ZNSt3__114__unwrap_rangeB8ue170006IPKcS2_EENS_4pairIT0_S4_EET_S6_, symObjAddr: 0x3EFC, symBinAddr: 0x10000A3B0, symSize: 0x60 }
  - { offsetInCU: 0x690E, offset: 0x1FC5A, size: 0x8, addend: 0x0, symName: __ZNSt3__113__unwrap_iterB8ue170006IPcNS_18__unwrap_iter_implIS1_Lb1EEELi0EEEDTclsrT0_8__unwrapclsr3stdE7declvalIT_EEEES5_, symObjAddr: 0x3FA4, symBinAddr: 0x10000A458, symSize: 0x24 }
  - { offsetInCU: 0x6952, offset: 0x1FC9E, size: 0x8, addend: 0x0, symName: __ZNSt3__19make_pairB8ue170006IPKcPcEENS_4pairINS_18__unwrap_ref_decayIT_E4typeENS5_IT0_E4typeEEEOS6_OS9_, symObjAddr: 0x3FC8, symBinAddr: 0x10000A47C, symSize: 0x38 }
  - { offsetInCU: 0x69A1, offset: 0x1FCED, size: 0x8, addend: 0x0, symName: __ZNSt3__114__rewrap_rangeB8ue170006IPKcS2_EET_S3_T0_, symObjAddr: 0x4000, symBinAddr: 0x10000A4B4, symSize: 0x2C }
  - { offsetInCU: 0x69ED, offset: 0x1FD39, size: 0x8, addend: 0x0, symName: __ZNSt3__113__rewrap_iterB8ue170006IPcS1_NS_18__unwrap_iter_implIS1_Lb1EEEEET_S4_T0_, symObjAddr: 0x402C, symBinAddr: 0x10000A4E0, symSize: 0x50 }
  - { offsetInCU: 0x6A42, offset: 0x1FD8E, size: 0x8, addend: 0x0, symName: __ZNSt3__19make_pairB8ue170006IPKcS2_EENS_4pairINS_18__unwrap_ref_decayIT_E4typeENS4_IT0_E4typeEEEOS5_OS8_, symObjAddr: 0x407C, symBinAddr: 0x10000A530, symSize: 0x38 }
  - { offsetInCU: 0x6A91, offset: 0x1FDDD, size: 0x8, addend: 0x0, symName: __ZNSt3__113__unwrap_iterB8ue170006IPKcNS_18__unwrap_iter_implIS2_Lb1EEELi0EEEDTclsrT0_8__unwrapclsr3stdE7declvalIT_EEEES6_, symObjAddr: 0x40B4, symBinAddr: 0x10000A568, symSize: 0x24 }
  - { offsetInCU: 0x6BD5, offset: 0x1FF21, size: 0x8, addend: 0x0, symName: __ZNSt3__119__copy_trivial_implB8ue170006IKccEENS_4pairIPT_PT0_EES4_S4_S6_, symObjAddr: 0x4180, symBinAddr: 0x10000A620, symSize: 0x78 }
  - { offsetInCU: 0x6C3E, offset: 0x1FF8A, size: 0x8, addend: 0x0, symName: __ZNSt3__119__constexpr_memmoveB8ue170006IcKcLi0EEEPT_S3_PT0_NS_15__element_countE, symObjAddr: 0x41F8, symBinAddr: 0x10000A698, symSize: 0xA0 }
  - { offsetInCU: 0x6CAD, offset: 0x1FFF9, size: 0x8, addend: 0x0, symName: __ZNSt3__19make_pairB8ue170006IRPKcPcEENS_4pairINS_18__unwrap_ref_decayIT_E4typeENS6_IT0_E4typeEEEOS7_OSA_, symObjAddr: 0x4298, symBinAddr: 0x10000A738, symSize: 0x38 }
  - { offsetInCU: 0x6D4F, offset: 0x2009B, size: 0x8, addend: 0x0, symName: __ZNSt3__113__rewrap_iterB8ue170006IPKcS2_NS_18__unwrap_iter_implIS2_Lb1EEEEET_S5_T0_, symObjAddr: 0x4364, symBinAddr: 0x10000A804, symSize: 0x50 }
  - { offsetInCU: 0x6DA4, offset: 0x200F0, size: 0x8, addend: 0x0, symName: __ZNSt3__16fill_nB8ue170006IPcmcEET_S2_T0_RKT1_, symObjAddr: 0x44FC, symBinAddr: 0x10000A8E4, symSize: 0x44 }
  - { offsetInCU: 0x6E07, offset: 0x20153, size: 0x8, addend: 0x0, symName: __ZNSt3__18__fill_nB8ue170006IPcmcEET_S2_T0_RKT1_, symObjAddr: 0x4540, symBinAddr: 0x10000A928, symSize: 0x64 }
  - { offsetInCU: 0x6E6A, offset: 0x201B6, size: 0x8, addend: 0x0, symName: __ZNSt3__121__convert_to_integralB8ue170006Em, symObjAddr: 0x45A4, symBinAddr: 0x10000A98C, symSize: 0x14 }
  - { offsetInCU: 0x76C8, offset: 0x20A14, size: 0x8, addend: 0x0, symName: __ZNSt3__16vectorI8VehiculoNS_9allocatorIS1_EEE26__swap_out_circular_bufferERNS_14__split_bufferIS1_RS3_EE, symObjAddr: 0x1B38, symBinAddr: 0x100008BF0, symSize: 0x110 }
  - { offsetInCU: 0x9568, offset: 0x228B4, size: 0x8, addend: 0x0, symName: __Z18obtenerFechaActualv, symObjAddr: 0x0, symBinAddr: 0x100007468, symSize: 0x98 }
  - { offsetInCU: 0x96B9, offset: 0x22A05, size: 0x8, addend: 0x0, symName: __ZN5VentaC2ENSt3__112basic_stringIcNS0_11char_traitsIcEENS0_9allocatorIcEEEES6_, symObjAddr: 0xCC, symBinAddr: 0x100007500, symSize: 0xB0 }
  - { offsetInCU: 0x9701, offset: 0x22A4D, size: 0x8, addend: 0x0, symName: __ZNSt3__16vectorI8VehiculoNS_9allocatorIS1_EEEC1B8ue170006Ev, symObjAddr: 0x17C, symBinAddr: 0x1000075B0, symSize: 0x2C }
  - { offsetInCU: 0x9729, offset: 0x22A75, size: 0x8, addend: 0x0, symName: __ZN5VentaC1ENSt3__112basic_stringIcNS0_11char_traitsIcEENS0_9allocatorIcEEEES6_, symObjAddr: 0x1B4, symBinAddr: 0x1000075DC, symSize: 0x3C }
  - { offsetInCU: 0x9771, offset: 0x22ABD, size: 0x8, addend: 0x0, symName: __ZN5Venta15agregarVehiculoERK8Vehiculo, symObjAddr: 0x1F0, symBinAddr: 0x100007618, symSize: 0x30 }
  - { offsetInCU: 0x97A4, offset: 0x22AF0, size: 0x8, addend: 0x0, symName: __ZNSt3__16vectorI8VehiculoNS_9allocatorIS1_EEE9push_backB8ue170006ERKS1_, symObjAddr: 0x220, symBinAddr: 0x100007648, symSize: 0x6C }
  - { offsetInCU: 0x97DB, offset: 0x22B27, size: 0x8, addend: 0x0, symName: __ZNK5Venta12getVehiculosEv, symObjAddr: 0x28C, symBinAddr: 0x1000076B4, symSize: 0x18 }
  - { offsetInCU: 0x9802, offset: 0x22B4E, size: 0x8, addend: 0x0, symName: __ZN5Venta17guardarDatosVentaEv, symObjAddr: 0x2A4, symBinAddr: 0x1000076CC, symSize: 0x868 }
  - { offsetInCU: 0x9900, offset: 0x22C4C, size: 0x8, addend: 0x0, symName: __ZNSt3__16vectorI8VehiculoNS_9allocatorIS1_EEE5beginB8ue170006Ev, symObjAddr: 0xB0C, symBinAddr: 0x100007F34, symSize: 0x30 }
  - { offsetInCU: 0x9927, offset: 0x22C73, size: 0x8, addend: 0x0, symName: __ZNSt3__16vectorI8VehiculoNS_9allocatorIS1_EEE3endB8ue170006Ev, symObjAddr: 0xB3C, symBinAddr: 0x100007F64, symSize: 0x30 }
  - { offsetInCU: 0x994F, offset: 0x22C9B, size: 0x8, addend: 0x0, symName: __ZNKSt3__111__wrap_iterIP8VehiculoEdeB8ue170006Ev, symObjAddr: 0xBA0, symBinAddr: 0x100007FC8, symSize: 0x18 }
  - { offsetInCU: 0x9974, offset: 0x22CC0, size: 0x8, addend: 0x0, symName: __ZNSt3__111__wrap_iterIP8VehiculoEppB8ue170006Ev, symObjAddr: 0xBB8, symBinAddr: 0x100007FE0, symSize: 0x20 }
  - { offsetInCU: 0x99F0, offset: 0x22D3C, size: 0x8, addend: 0x0, symName: __ZNSt3__114basic_ofstreamIcNS_11char_traitsIcEEEC1ERKNS_12basic_stringIcS2_NS_9allocatorIcEEEEj, symObjAddr: 0xCF4, symBinAddr: 0x10000811C, symSize: 0x17C }
  - { offsetInCU: 0x9A38, offset: 0x22D84, size: 0x8, addend: 0x0, symName: __ZNKSt3__114basic_ofstreamIcNS_11char_traitsIcEEE7is_openEv, symObjAddr: 0xE70, symBinAddr: 0x100008298, symSize: 0x2C }
  - { offsetInCU: 0x9A5F, offset: 0x22DAB, size: 0x8, addend: 0x0, symName: __ZNSt3__114basic_ofstreamIcNS_11char_traitsIcEEE5closeEv, symObjAddr: 0xFB4, symBinAddr: 0x1000082C4, symSize: 0x58 }
  - { offsetInCU: 0x9A8C, offset: 0x22DD8, size: 0x8, addend: 0x0, symName: __ZNSt3__114basic_ofstreamIcNS_11char_traitsIcEEED1Ev, symObjAddr: 0x100C, symBinAddr: 0x10000831C, symSize: 0x70 }
  - { offsetInCU: 0x9AB8, offset: 0x22E04, size: 0x8, addend: 0x0, symName: __ZN5Venta27setTotalVehiculosAccesoriosEv, symObjAddr: 0x107C, symBinAddr: 0x10000838C, symSize: 0xD4 }
  - { offsetInCU: 0x9B50, offset: 0x22E9C, size: 0x8, addend: 0x0, symName: __ZN5Venta17getTotalVehiculosEv, symObjAddr: 0x1150, symBinAddr: 0x100008460, symSize: 0x18 }
  - { offsetInCU: 0x9B77, offset: 0x22EC3, size: 0x8, addend: 0x0, symName: __ZN5Venta18getTotalAccesoriosEv, symObjAddr: 0x1168, symBinAddr: 0x100008478, symSize: 0x18 }
  - { offsetInCU: 0x9B9E, offset: 0x22EEA, size: 0x8, addend: 0x0, symName: __ZN5Venta16getNombreClienteEv, symObjAddr: 0x1180, symBinAddr: 0x100008490, symSize: 0x38 }
  - { offsetInCU: 0x9BC4, offset: 0x22F10, size: 0x8, addend: 0x0, symName: __ZNSt3__114basic_ofstreamIcNS_11char_traitsIcEEED2Ev, symObjAddr: 0x11B8, symBinAddr: 0x1000084C8, symSize: 0x9C }
  - { offsetInCU: 0x9BFC, offset: 0x22F48, size: 0x8, addend: 0x0, symName: __ZTv0_n24_NSt3__114basic_ofstreamIcNS_11char_traitsIcEEED1Ev, symObjAddr: 0x1254, symBinAddr: 0x100008564, symSize: 0x28 }
  - { offsetInCU: 0x9C18, offset: 0x22F64, size: 0x8, addend: 0x0, symName: __ZNSt3__16vectorI8VehiculoNS_9allocatorIS1_EEEC2B8ue170006Ev, symObjAddr: 0x1438, symBinAddr: 0x10000858C, symSize: 0x44 }
  - { offsetInCU: 0x9C45, offset: 0x22F91, size: 0x8, addend: 0x0, symName: __ZNSt3__117__compressed_pairIP8VehiculoNS_9allocatorIS1_EEEC1B8ue170006IDnNS_18__default_init_tagEEEOT_OT0_, symObjAddr: 0x147C, symBinAddr: 0x1000085D0, symSize: 0x3C }
  - { offsetInCU: 0x9C9B, offset: 0x22FE7, size: 0x8, addend: 0x0, symName: __ZNSt3__117__compressed_pairIP8VehiculoNS_9allocatorIS1_EEEC2B8ue170006IDnNS_18__default_init_tagEEEOT_OT0_, symObjAddr: 0x14B8, symBinAddr: 0x10000860C, symSize: 0x40 }
  - { offsetInCU: 0x9CF1, offset: 0x2303D, size: 0x8, addend: 0x0, symName: __ZNSt3__122__compressed_pair_elemIP8VehiculoLi0ELb0EEC2B8ue170006IDnvEEOT_, symObjAddr: 0x14F8, symBinAddr: 0x10000864C, symSize: 0x1C }
  - { offsetInCU: 0x9D31, offset: 0x2307D, size: 0x8, addend: 0x0, symName: __ZNSt3__122__compressed_pair_elemINS_9allocatorI8VehiculoEELi1ELb1EEC2B8ue170006ENS_18__default_init_tagE, symObjAddr: 0x1514, symBinAddr: 0x100008668, symSize: 0x2C }
  - { offsetInCU: 0x9D63, offset: 0x230AF, size: 0x8, addend: 0x0, symName: __ZNSt3__19allocatorI8VehiculoEC2B8ue170006Ev, symObjAddr: 0x1540, symBinAddr: 0x100008694, symSize: 0x2C }
  - { offsetInCU: 0x9D8B, offset: 0x230D7, size: 0x8, addend: 0x0, symName: __ZNSt3__116__non_trivial_ifILb1ENS_9allocatorI8VehiculoEEEC2B8ue170006Ev, symObjAddr: 0x156C, symBinAddr: 0x1000086C0, symSize: 0x14 }
  - { offsetInCU: 0x9DB3, offset: 0x230FF, size: 0x8, addend: 0x0, symName: __ZNSt3__16vectorI8VehiculoNS_9allocatorIS1_EEE9__end_capB8ue170006Ev, symObjAddr: 0x1580, symBinAddr: 0x1000086D4, symSize: 0x28 }
  - { offsetInCU: 0x9DD8, offset: 0x23124, size: 0x8, addend: 0x0, symName: __ZNSt3__16vectorI8VehiculoNS_9allocatorIS1_EEE22__construct_one_at_endB8ue170006IJRKS1_EEEvDpOT_, symObjAddr: 0x15A8, symBinAddr: 0x1000086FC, symSize: 0x98 }
  - { offsetInCU: 0x9E25, offset: 0x23171, size: 0x8, addend: 0x0, symName: __ZNSt3__16vectorI8VehiculoNS_9allocatorIS1_EEE21__push_back_slow_pathIRKS1_EEvOT_, symObjAddr: 0x1640, symBinAddr: 0x100008794, symSize: 0xE0 }
  - { offsetInCU: 0x9E83, offset: 0x231CF, size: 0x8, addend: 0x0, symName: __ZNSt3__117__compressed_pairIP8VehiculoNS_9allocatorIS1_EEE5firstB8ue170006Ev, symObjAddr: 0x1720, symBinAddr: 0x100008874, symSize: 0x24 }
  - { offsetInCU: 0x9EA8, offset: 0x231F4, size: 0x8, addend: 0x0, symName: __ZNSt3__122__compressed_pair_elemIP8VehiculoLi0ELb0EE5__getB8ue170006Ev, symObjAddr: 0x1744, symBinAddr: 0x100008898, symSize: 0x14 }
  - { offsetInCU: 0x9EE6, offset: 0x23232, size: 0x8, addend: 0x0, symName: __ZNSt3__16vectorI8VehiculoNS_9allocatorIS1_EEE21_ConstructTransactionC1B8ue170006ERS4_m, symObjAddr: 0x1758, symBinAddr: 0x1000088AC, symSize: 0x3C }
  - { offsetInCU: 0x9F2C, offset: 0x23278, size: 0x8, addend: 0x0, symName: __ZNSt3__116allocator_traitsINS_9allocatorI8VehiculoEEE9constructB8ue170006IS2_JRKS2_EvEEvRS3_PT_DpOT0_, symObjAddr: 0x1794, symBinAddr: 0x1000088E8, symSize: 0x34 }
  - { offsetInCU: 0x9F82, offset: 0x232CE, size: 0x8, addend: 0x0, symName: __ZNSt3__16vectorI8VehiculoNS_9allocatorIS1_EEE21_ConstructTransactionD1B8ue170006Ev, symObjAddr: 0x1804, symBinAddr: 0x10000891C, symSize: 0x2C }
  - { offsetInCU: 0x9FAA, offset: 0x232F6, size: 0x8, addend: 0x0, symName: __ZNSt3__16vectorI8VehiculoNS_9allocatorIS1_EEE21_ConstructTransactionC2B8ue170006ERS4_m, symObjAddr: 0x1830, symBinAddr: 0x100008948, symSize: 0x4C }
  - { offsetInCU: 0x9FF0, offset: 0x2333C, size: 0x8, addend: 0x0, symName: __ZNSt3__19allocatorI8VehiculoE9constructB8ue170006IS1_JRKS1_EEEvPT_DpOT0_, symObjAddr: 0x187C, symBinAddr: 0x100008994, symSize: 0x30 }
  - { offsetInCU: 0xA045, offset: 0x23391, size: 0x8, addend: 0x0, symName: __ZN8VehiculoC1ERKS_, symObjAddr: 0x18AC, symBinAddr: 0x1000089C4, symSize: 0x34 }
  - { offsetInCU: 0xA078, offset: 0x233C4, size: 0x8, addend: 0x0, symName: __ZN8VehiculoC2ERKS_, symObjAddr: 0x18E0, symBinAddr: 0x1000089F8, symSize: 0xE0 }
  - { offsetInCU: 0xA0AB, offset: 0x233F7, size: 0x8, addend: 0x0, symName: __ZNSt3__16vectorI8VehiculoNS_9allocatorIS1_EEE21_ConstructTransactionD2B8ue170006Ev, symObjAddr: 0x19F8, symBinAddr: 0x100008AD8, symSize: 0x20 }
  - { offsetInCU: 0xA0D2, offset: 0x2341E, size: 0x8, addend: 0x0, symName: __ZNKSt3__16vectorI8VehiculoNS_9allocatorIS1_EEE11__recommendB8ue170006Em, symObjAddr: 0x1A18, symBinAddr: 0x100008AF8, symSize: 0xB4 }
  - { offsetInCU: 0xA127, offset: 0x23473, size: 0x8, addend: 0x0, symName: __ZNSt3__114__split_bufferI8VehiculoRNS_9allocatorIS1_EEEC1EmmS4_, symObjAddr: 0x1AF4, symBinAddr: 0x100008BAC, symSize: 0x44 }
  - { offsetInCU: 0xA17C, offset: 0x234C8, size: 0x8, addend: 0x0, symName: __ZNSt3__114__split_bufferI8VehiculoRNS_9allocatorIS1_EEED1Ev, symObjAddr: 0x1C48, symBinAddr: 0x100008D00, symSize: 0x2C }
  - { offsetInCU: 0xA1A6, offset: 0x234F2, size: 0x8, addend: 0x0, symName: __ZNKSt3__16vectorI8VehiculoNS_9allocatorIS1_EEE8max_sizeEv, symObjAddr: 0x1C74, symBinAddr: 0x100008D2C, symSize: 0x74 }
  - { offsetInCU: 0xA1CE, offset: 0x2351A, size: 0x8, addend: 0x0, symName: __ZNKSt3__16vectorI8VehiculoNS_9allocatorIS1_EEE20__throw_length_errorB8ue170006Ev, symObjAddr: 0x1CE8, symBinAddr: 0x100008DA0, symSize: 0x1C }
  - { offsetInCU: 0xA1FD, offset: 0x23549, size: 0x8, addend: 0x0, symName: __ZNSt3__116allocator_traitsINS_9allocatorI8VehiculoEEE8max_sizeB8ue170006IS3_vEEmRKS3_, symObjAddr: 0x1D9C, symBinAddr: 0x100008E14, symSize: 0x24 }
  - { offsetInCU: 0xA22A, offset: 0x23576, size: 0x8, addend: 0x0, symName: __ZNKSt3__16vectorI8VehiculoNS_9allocatorIS1_EEE7__allocB8ue170006Ev, symObjAddr: 0x1DC0, symBinAddr: 0x100008E38, symSize: 0x28 }
  - { offsetInCU: 0xA263, offset: 0x235AF, size: 0x8, addend: 0x0, symName: __ZNKSt3__16__lessIvvEclB8ue170006ImmEEbRKT_RKT0_, symObjAddr: 0x1E50, symBinAddr: 0x100008EB4, symSize: 0x34 }
  - { offsetInCU: 0xA2B6, offset: 0x23602, size: 0x8, addend: 0x0, symName: __ZNKSt3__19allocatorI8VehiculoE8max_sizeB8ue170006Ev, symObjAddr: 0x1E84, symBinAddr: 0x100008EE8, symSize: 0x20 }
  - { offsetInCU: 0xA2DB, offset: 0x23627, size: 0x8, addend: 0x0, symName: __ZNKSt3__117__compressed_pairIP8VehiculoNS_9allocatorIS1_EEE6secondB8ue170006Ev, symObjAddr: 0x1EA4, symBinAddr: 0x100008F08, symSize: 0x24 }
  - { offsetInCU: 0xA300, offset: 0x2364C, size: 0x8, addend: 0x0, symName: __ZNKSt3__122__compressed_pair_elemINS_9allocatorI8VehiculoEELi1ELb1EE5__getB8ue170006Ev, symObjAddr: 0x1EC8, symBinAddr: 0x100008F2C, symSize: 0x14 }
  - { offsetInCU: 0xA325, offset: 0x23671, size: 0x8, addend: 0x0, symName: __ZNSt12length_errorC1B8ue170006EPKc, symObjAddr: 0x1F48, symBinAddr: 0x100008FA4, symSize: 0x34 }
  - { offsetInCU: 0xA35B, offset: 0x236A7, size: 0x8, addend: 0x0, symName: __ZNSt12length_errorC2B8ue170006EPKc, symObjAddr: 0x1F7C, symBinAddr: 0x100008FD8, symSize: 0x4C }
  - { offsetInCU: 0xA391, offset: 0x236DD, size: 0x8, addend: 0x0, symName: __ZNSt3__114__split_bufferI8VehiculoRNS_9allocatorIS1_EEEC2EmmS4_, symObjAddr: 0x207C, symBinAddr: 0x100009078, symSize: 0xE0 }
  - { offsetInCU: 0xA404, offset: 0x23750, size: 0x8, addend: 0x0, symName: __ZNSt3__117__compressed_pairIP8VehiculoRNS_9allocatorIS1_EEEC1B8ue170006IDnS5_EEOT_OT0_, symObjAddr: 0x215C, symBinAddr: 0x100009158, symSize: 0x3C }
  - { offsetInCU: 0xA45A, offset: 0x237A6, size: 0x8, addend: 0x0, symName: __ZNSt3__114__split_bufferI8VehiculoRNS_9allocatorIS1_EEE7__allocB8ue170006Ev, symObjAddr: 0x21D8, symBinAddr: 0x1000091D4, symSize: 0x28 }
  - { offsetInCU: 0xA47F, offset: 0x237CB, size: 0x8, addend: 0x0, symName: __ZNSt3__114__split_bufferI8VehiculoRNS_9allocatorIS1_EEE9__end_capB8ue170006Ev, symObjAddr: 0x2200, symBinAddr: 0x1000091FC, symSize: 0x28 }
  - { offsetInCU: 0xA4A4, offset: 0x237F0, size: 0x8, addend: 0x0, symName: __ZNSt3__117__compressed_pairIP8VehiculoRNS_9allocatorIS1_EEEC2B8ue170006IDnS5_EEOT_OT0_, symObjAddr: 0x2228, symBinAddr: 0x100009224, symSize: 0x48 }
  - { offsetInCU: 0xA4FA, offset: 0x23846, size: 0x8, addend: 0x0, symName: __ZNSt3__122__compressed_pair_elemIRNS_9allocatorI8VehiculoEELi1ELb0EEC2B8ue170006IS4_vEEOT_, symObjAddr: 0x2270, symBinAddr: 0x10000926C, symSize: 0x20 }
  - { offsetInCU: 0xA53A, offset: 0x23886, size: 0x8, addend: 0x0, symName: __ZNSt3__19allocatorI8VehiculoE8allocateB8ue170006Em, symObjAddr: 0x2290, symBinAddr: 0x10000928C, symSize: 0x8C }
  - { offsetInCU: 0xA56D, offset: 0x238B9, size: 0x8, addend: 0x0, symName: __ZNSt3__117__compressed_pairIP8VehiculoRNS_9allocatorIS1_EEE6secondB8ue170006Ev, symObjAddr: 0x23A8, symBinAddr: 0x100009318, symSize: 0x28 }
  - { offsetInCU: 0xA592, offset: 0x238DE, size: 0x8, addend: 0x0, symName: __ZNSt3__122__compressed_pair_elemIRNS_9allocatorI8VehiculoEELi1ELb0EE5__getB8ue170006Ev, symObjAddr: 0x23D0, symBinAddr: 0x100009340, symSize: 0x18 }
  - { offsetInCU: 0xA5B7, offset: 0x23903, size: 0x8, addend: 0x0, symName: __ZNSt3__117__compressed_pairIP8VehiculoRNS_9allocatorIS1_EEE5firstB8ue170006Ev, symObjAddr: 0x23E8, symBinAddr: 0x100009358, symSize: 0x24 }
  - { offsetInCU: 0xA5DC, offset: 0x23928, size: 0x8, addend: 0x0, symName: __ZNSt3__116reverse_iteratorIP8VehiculoEC1B8ue170006ES2_, symObjAddr: 0x2614, symBinAddr: 0x1000094B0, symSize: 0x34 }
  - { offsetInCU: 0xA612, offset: 0x2395E, size: 0x8, addend: 0x0, symName: __ZNKSt3__116reverse_iteratorIP8VehiculoE4baseB8ue170006Ev, symObjAddr: 0x2648, symBinAddr: 0x1000094E4, symSize: 0x18 }
  - { offsetInCU: 0xA637, offset: 0x23983, size: 0x8, addend: 0x0, symName: __ZNKSt3__16vectorI8VehiculoNS_9allocatorIS1_EEE14__annotate_newB8ue170006Em, symObjAddr: 0x269C, symBinAddr: 0x100009538, symSize: 0xC8 }
  - { offsetInCU: 0xA66B, offset: 0x239B7, size: 0x8, addend: 0x0, symName: __ZNSt3__129_AllocatorDestroyRangeReverseINS_9allocatorI8VehiculoEENS_16reverse_iteratorIPS2_EEEC1B8ue170006ERS3_RS6_S9_, symObjAddr: 0x27F8, symBinAddr: 0x10000964C, symSize: 0x44 }
  - { offsetInCU: 0xA6C0, offset: 0x23A0C, size: 0x8, addend: 0x0, symName: __ZNKSt3__116reverse_iteratorIP8VehiculoEdeB8ue170006Ev, symObjAddr: 0x28A8, symBinAddr: 0x1000096FC, symSize: 0x28 }
  - { offsetInCU: 0xA6F4, offset: 0x23A40, size: 0x8, addend: 0x0, symName: __ZNSt3__116reverse_iteratorIP8VehiculoEppB8ue170006Ev, symObjAddr: 0x28D0, symBinAddr: 0x100009724, symSize: 0x20 }
  - { offsetInCU: 0xA719, offset: 0x23A65, size: 0x8, addend: 0x0, symName: __ZNSt3__128__exception_guard_exceptionsINS_29_AllocatorDestroyRangeReverseINS_9allocatorI8VehiculoEENS_16reverse_iteratorIPS3_EEEEE10__completeB8ue170006Ev, symObjAddr: 0x28F0, symBinAddr: 0x100009744, symSize: 0x1C }
  - { offsetInCU: 0xA73E, offset: 0x23A8A, size: 0x8, addend: 0x0, symName: __ZNSt3__128__exception_guard_exceptionsINS_29_AllocatorDestroyRangeReverseINS_9allocatorI8VehiculoEENS_16reverse_iteratorIPS3_EEEEED1B8ue170006Ev, symObjAddr: 0x290C, symBinAddr: 0x100009760, symSize: 0x2C }
  - { offsetInCU: 0xA766, offset: 0x23AB2, size: 0x8, addend: 0x0, symName: __ZNSt3__128__exception_guard_exceptionsINS_29_AllocatorDestroyRangeReverseINS_9allocatorI8VehiculoEENS_16reverse_iteratorIPS3_EEEEEC1B8ue170006ES8_, symObjAddr: 0x2938, symBinAddr: 0x10000978C, symSize: 0x34 }
  - { offsetInCU: 0xA79D, offset: 0x23AE9, size: 0x8, addend: 0x0, symName: __ZNSt3__128__exception_guard_exceptionsINS_29_AllocatorDestroyRangeReverseINS_9allocatorI8VehiculoEENS_16reverse_iteratorIPS3_EEEEEC2B8ue170006ES8_, symObjAddr: 0x296C, symBinAddr: 0x1000097C0, symSize: 0x30 }
  - { offsetInCU: 0xA7D4, offset: 0x23B20, size: 0x8, addend: 0x0, symName: __ZNSt3__129_AllocatorDestroyRangeReverseINS_9allocatorI8VehiculoEENS_16reverse_iteratorIPS2_EEEC2B8ue170006ERS3_RS6_S9_, symObjAddr: 0x299C, symBinAddr: 0x1000097F0, symSize: 0x38 }
  - { offsetInCU: 0xA82E, offset: 0x23B7A, size: 0x8, addend: 0x0, symName: __ZNSt3__119__to_address_helperINS_16reverse_iteratorIP8VehiculoEEvE6__callB8ue170006ERKS4_, symObjAddr: 0x29D4, symBinAddr: 0x100009828, symSize: 0x4C }
  - { offsetInCU: 0xA850, offset: 0x23B9C, size: 0x8, addend: 0x0, symName: __ZNKSt3__116reverse_iteratorIP8VehiculoEptB8ue170006Ev, symObjAddr: 0x2A20, symBinAddr: 0x100009874, symSize: 0x24 }
  - { offsetInCU: 0xA875, offset: 0x23BC1, size: 0x8, addend: 0x0, symName: __ZNSt3__128__exception_guard_exceptionsINS_29_AllocatorDestroyRangeReverseINS_9allocatorI8VehiculoEENS_16reverse_iteratorIPS3_EEEEED2B8ue170006Ev, symObjAddr: 0x2A44, symBinAddr: 0x100009898, symSize: 0x48 }
  - { offsetInCU: 0xA89D, offset: 0x23BE9, size: 0x8, addend: 0x0, symName: __ZNKSt3__129_AllocatorDestroyRangeReverseINS_9allocatorI8VehiculoEENS_16reverse_iteratorIPS2_EEEclB8ue170006Ev, symObjAddr: 0x2A8C, symBinAddr: 0x1000098E0, symSize: 0xB4 }
  - { offsetInCU: 0xA8C3, offset: 0x23C0F, size: 0x8, addend: 0x0, symName: __ZNSt3__116reverse_iteratorINS0_IP8VehiculoEEEC1B8ue170006ES3_, symObjAddr: 0x2BB0, symBinAddr: 0x100009A04, symSize: 0x3C }
  - { offsetInCU: 0xA8F9, offset: 0x23C45, size: 0x8, addend: 0x0, symName: __ZNSt3__116reverse_iteratorINS0_IP8VehiculoEEEppB8ue170006Ev, symObjAddr: 0x2C9C, symBinAddr: 0x100009AC4, symSize: 0x30 }
  - { offsetInCU: 0xA91E, offset: 0x23C6A, size: 0x8, addend: 0x0, symName: __ZNKSt3__116reverse_iteratorINS0_IP8VehiculoEEE4baseB8ue170006Ev, symObjAddr: 0x2CCC, symBinAddr: 0x100009AF4, symSize: 0x24 }
  - { offsetInCU: 0xA948, offset: 0x23C94, size: 0x8, addend: 0x0, symName: __ZNSt3__119__to_address_helperINS_16reverse_iteratorINS1_IP8VehiculoEEEEvE6__callB8ue170006ERKS5_, symObjAddr: 0x2DDC, symBinAddr: 0x100009B18, symSize: 0x4C }
  - { offsetInCU: 0xA96A, offset: 0x23CB6, size: 0x8, addend: 0x0, symName: __ZNKSt3__116reverse_iteratorINS0_IP8VehiculoEEEptB8ue170006Ev, symObjAddr: 0x2E28, symBinAddr: 0x100009B64, symSize: 0x24 }
  - { offsetInCU: 0xA98F, offset: 0x23CDB, size: 0x8, addend: 0x0, symName: __ZNKSt3__116reverse_iteratorINS0_IP8VehiculoEEEdeB8ue170006Ev, symObjAddr: 0x2E4C, symBinAddr: 0x100009B88, symSize: 0x34 }
  - { offsetInCU: 0xA9C3, offset: 0x23D0F, size: 0x8, addend: 0x0, symName: __ZNSt3__116reverse_iteratorIP8VehiculoEmmB8ue170006Ev, symObjAddr: 0x2E80, symBinAddr: 0x100009BBC, symSize: 0x20 }
  - { offsetInCU: 0xA9E8, offset: 0x23D34, size: 0x8, addend: 0x0, symName: __ZNSt3__116reverse_iteratorINS0_IP8VehiculoEEEC2B8ue170006ES3_, symObjAddr: 0x2EA0, symBinAddr: 0x100009BDC, symSize: 0x2C }
  - { offsetInCU: 0xAA1E, offset: 0x23D6A, size: 0x8, addend: 0x0, symName: __ZNSt3__116reverse_iteratorIP8VehiculoEC2B8ue170006ES2_, symObjAddr: 0x2ECC, symBinAddr: 0x100009C08, symSize: 0x28 }
  - { offsetInCU: 0xAA54, offset: 0x23DA0, size: 0x8, addend: 0x0, symName: __ZNSt3__114__split_bufferI8VehiculoRNS_9allocatorIS1_EEED2Ev, symObjAddr: 0x2EF4, symBinAddr: 0x100009C30, symSize: 0x80 }
  - { offsetInCU: 0xAA7F, offset: 0x23DCB, size: 0x8, addend: 0x0, symName: __ZNSt3__114__split_bufferI8VehiculoRNS_9allocatorIS1_EEE5clearB8ue170006Ev, symObjAddr: 0x2F74, symBinAddr: 0x100009CB0, symSize: 0x28 }
  - { offsetInCU: 0xAAA4, offset: 0x23DF0, size: 0x8, addend: 0x0, symName: __ZNKSt3__114__split_bufferI8VehiculoRNS_9allocatorIS1_EEE8capacityB8ue170006Ev, symObjAddr: 0x2FD0, symBinAddr: 0x100009CD8, symSize: 0x40 }
  - { offsetInCU: 0xAAC9, offset: 0x23E15, size: 0x8, addend: 0x0, symName: __ZNSt3__114__split_bufferI8VehiculoRNS_9allocatorIS1_EEE17__destruct_at_endB8ue170006EPS1_, symObjAddr: 0x3010, symBinAddr: 0x100009D18, symSize: 0x2C }
  - { offsetInCU: 0xAAFB, offset: 0x23E47, size: 0x8, addend: 0x0, symName: __ZNSt3__114__split_bufferI8VehiculoRNS_9allocatorIS1_EEE17__destruct_at_endB8ue170006EPS1_NS_17integral_constantIbLb0EEE, symObjAddr: 0x303C, symBinAddr: 0x100009D44, symSize: 0x94 }
  - { offsetInCU: 0xAB3B, offset: 0x23E87, size: 0x8, addend: 0x0, symName: __ZNKSt3__114__split_bufferI8VehiculoRNS_9allocatorIS1_EEE9__end_capB8ue170006Ev, symObjAddr: 0x31C0, symBinAddr: 0x100009DD8, symSize: 0x28 }
  - { offsetInCU: 0xAB60, offset: 0x23EAC, size: 0x8, addend: 0x0, symName: __ZNKSt3__117__compressed_pairIP8VehiculoRNS_9allocatorIS1_EEE5firstB8ue170006Ev, symObjAddr: 0x31E8, symBinAddr: 0x100009E00, symSize: 0x24 }
  - { offsetInCU: 0xAB85, offset: 0x23ED1, size: 0x8, addend: 0x0, symName: __ZNSt3__16vectorI8VehiculoNS_9allocatorIS1_EEE11__make_iterB8ue170006EPS1_, symObjAddr: 0x320C, symBinAddr: 0x100009E24, symSize: 0x30 }
  - { offsetInCU: 0xABB9, offset: 0x23F05, size: 0x8, addend: 0x0, symName: __ZNSt3__111__wrap_iterIP8VehiculoEC1B8ue170006ES2_, symObjAddr: 0x323C, symBinAddr: 0x100009E54, symSize: 0x34 }
  - { offsetInCU: 0xABEF, offset: 0x23F3B, size: 0x8, addend: 0x0, symName: __ZNSt3__111__wrap_iterIP8VehiculoEC2B8ue170006ES2_, symObjAddr: 0x3270, symBinAddr: 0x100009E88, symSize: 0x20 }
  - { offsetInCU: 0xAC25, offset: 0x23F71, size: 0x8, addend: 0x0, symName: __ZNKSt3__111__wrap_iterIP8VehiculoE4baseB8ue170006Ev, symObjAddr: 0x32D8, symBinAddr: 0x100009EF0, symSize: 0x18 }
  - { offsetInCU: 0xAC54, offset: 0x23FA0, size: 0x8, addend: 0x0, symName: __ZNSt3__116allocator_traitsINS_9allocatorIcEEE37select_on_container_copy_constructionB8ue170006IS2_vvEES2_RKS2_, symObjAddr: 0x3344, symBinAddr: 0x100009F08, symSize: 0x10 }
  - { offsetInCU: 0xAC83, offset: 0x23FCF, size: 0x8, addend: 0x0, symName: __ZNSt3__112basic_stringIcNS_11char_traitsIcEENS_9allocatorIcEEEC1B8ue170006ENS_24__uninitialized_size_tagEmRKS4_, symObjAddr: 0x3378, symBinAddr: 0x100009F18, symSize: 0x3C }
  - { offsetInCU: 0xACD5, offset: 0x24021, size: 0x8, addend: 0x0, symName: __ZNSt3__112basic_stringIcNS_11char_traitsIcEENS_9allocatorIcEEE13__get_pointerB8ue170006Ev, symObjAddr: 0x33C8, symBinAddr: 0x100009F68, symSize: 0x54 }
  - { offsetInCU: 0xACFA, offset: 0x24046, size: 0x8, addend: 0x0, symName: __ZNSt3__111char_traitsIcE4copyB8ue170006EPcPKcm, symObjAddr: 0x341C, symBinAddr: 0x100009FBC, symSize: 0x64 }
  - { offsetInCU: 0xAD38, offset: 0x24084, size: 0x8, addend: 0x0, symName: __ZNSt3__111char_traitsIcE6assignB8ue170006EPcmc, symObjAddr: 0x34A8, symBinAddr: 0x10000A020, symSize: 0x58 }
  - { offsetInCU: 0xAD76, offset: 0x240C2, size: 0x8, addend: 0x0, symName: __ZNSt3__112basic_stringIcNS_11char_traitsIcEENS_9allocatorIcEEEC2B8ue170006ENS_24__uninitialized_size_tagEmRKS4_, symObjAddr: 0x3664, symBinAddr: 0x10000A078, symSize: 0x110 }
  - { offsetInCU: 0xADF5, offset: 0x24141, size: 0x8, addend: 0x0, symName: __ZNKSt3__112basic_stringIcNS_11char_traitsIcEENS_9allocatorIcEEE20__throw_length_errorB8ue170006Ev, symObjAddr: 0x385C, symBinAddr: 0x10000A188, symSize: 0x1C }
  - { offsetInCU: 0xAE1A, offset: 0x24166, size: 0x8, addend: 0x0, symName: __ZNSt3__112basic_stringIcNS_11char_traitsIcEENS_9allocatorIcEEE13__fits_in_ssoB8ue170006Em, symObjAddr: 0x3878, symBinAddr: 0x10000A1A4, symSize: 0x4C }
  - { offsetInCU: 0xAE74, offset: 0x241C0, size: 0x8, addend: 0x0, symName: __ZNKSt3__114__copy_trivialclB8ue170006IKccLi0EEENS_4pairIPT_PT0_EES5_S5_S7_, symObjAddr: 0x3F5C, symBinAddr: 0x10000A410, symSize: 0x48 }
  - { offsetInCU: 0xAEF4, offset: 0x24240, size: 0x8, addend: 0x0, symName: __ZNSt3__14pairIPKcS2_EC1B8ue170006ERKS2_S5_, symObjAddr: 0x40D8, symBinAddr: 0x10000A58C, symSize: 0x3C }
  - { offsetInCU: 0xAF38, offset: 0x24284, size: 0x8, addend: 0x0, symName: __ZNSt3__14pairIPKcS2_EC2B8ue170006ERKS2_S5_, symObjAddr: 0x4114, symBinAddr: 0x10000A5C8, symSize: 0x34 }
  - { offsetInCU: 0xAF7C, offset: 0x242C8, size: 0x8, addend: 0x0, symName: __ZNSt3__118__unwrap_iter_implIPKcLb1EE8__unwrapB8ue170006ES2_, symObjAddr: 0x4148, symBinAddr: 0x10000A5FC, symSize: 0x24 }
  - { offsetInCU: 0xAF9E, offset: 0x242EA, size: 0x8, addend: 0x0, symName: __ZNSt3__14pairIPKcPcEC1B8ue170006ERKS2_RKS3_, symObjAddr: 0x42D0, symBinAddr: 0x10000A770, symSize: 0x3C }
  - { offsetInCU: 0xAFE2, offset: 0x2432E, size: 0x8, addend: 0x0, symName: __ZNSt3__14pairIPKcPcEC2B8ue170006ERKS2_RKS3_, symObjAddr: 0x430C, symBinAddr: 0x10000A7AC, symSize: 0x34 }
  - { offsetInCU: 0xB026, offset: 0x24372, size: 0x8, addend: 0x0, symName: __ZNSt3__118__unwrap_iter_implIPcLb1EE8__unwrapB8ue170006ES1_, symObjAddr: 0x4340, symBinAddr: 0x10000A7E0, symSize: 0x24 }
  - { offsetInCU: 0xB048, offset: 0x24394, size: 0x8, addend: 0x0, symName: __ZNSt3__118__unwrap_iter_implIPKcLb1EE8__rewrapB8ue170006ES2_S2_, symObjAddr: 0x43B4, symBinAddr: 0x10000A854, symSize: 0x48 }
  - { offsetInCU: 0xB078, offset: 0x243C4, size: 0x8, addend: 0x0, symName: __ZNSt3__118__unwrap_iter_implIPcLb1EE8__rewrapB8ue170006ES1_S1_, symObjAddr: 0x43FC, symBinAddr: 0x10000A89C, symSize: 0x48 }
  - { offsetInCU: 0xB0A8, offset: 0x243F4, size: 0x8, addend: 0x0, symName: __ZNSt3__113basic_ostreamIcNS_11char_traitsIcEEEC2B8ue170006EPNS_15basic_streambufIcS2_EE, symObjAddr: 0x45FC, symBinAddr: 0x10000A9A0, symSize: 0x60 }
  - { offsetInCU: 0x5B6F, offset: 0x2A087, size: 0x8, addend: 0x0, symName: _main, symObjAddr: 0x0, symBinAddr: 0x10000AA00, symSize: 0x8C }
...
